
D:/ECE243_Labs/Mario_Bro/MarioBros/main.axf:     file format elf32-littlearm


Disassembly of section .vectors:

00000000 <__cs3_interrupt_vector>:
   0:	18 f0 9f e5 18 f0 9f e5 18 f0 9f e5 18 f0 9f e5     ................
  10:	18 f0 9f e5 18 f0 9f e5 18 f0 9f e5 18 f0 9f e5     ................
  20:	5c 02 00 00 60 02 00 00 64 02 00 00 68 02 00 00     \...`...d...h...
  30:	6c 02 00 00 e8 3c 00 00 cc 06 00 00 70 02 00 00     l....<......p...

Disassembly of section .text:

00000040 <__cs3_reset_generic>:
      40:	ea000026 	b	e0 <__cs3_start_asm_sim>

00000044 <__cs3_start_c>:
      44:	e59f608c 	ldr	r6, [pc, #140]	; d8 <__cs3_region_zero_size_ram+0x90>
      48:	e3560000 	cmp	r6, #0
      4c:	e92d4080 	push	{r7, lr}
      50:	e2466001 	sub	r6, r6, #1
      54:	0a00001e 	beq	d4 <__cs3_region_zero_size_ram+0x8c>
      58:	e59f507c 	ldr	r5, [pc, #124]	; dc <__cs3_region_zero_size_ram+0x94>
      5c:	e3a00000 	mov	r0, #0
      60:	e3a01000 	mov	r1, #0
      64:	e515200c 	ldr	r2, [r5, #-12]
      68:	e515e010 	ldr	lr, [r5, #-16]
      6c:	e5154008 	ldr	r4, [r5, #-8]
      70:	e15e0002 	cmp	lr, r2
      74:	00822004 	addeq	r2, r2, r4
      78:	0a000009 	beq	a4 <__cs3_region_zero_size_ram+0x5c>
      7c:	e3540000 	cmp	r4, #0
      80:	0a000007 	beq	a4 <__cs3_region_zero_size_ram+0x5c>
      84:	e1a07002 	mov	r7, r2
      88:	e1a0c002 	mov	r12, r2
      8c:	e8be000c 	ldm	lr!, {r2, r3}
      90:	e8ac000c 	stmia	r12!, {r2, r3}
      94:	e067300c 	rsb	r3, r7, r12
      98:	e1540003 	cmp	r4, r3
      9c:	e1a0200c 	mov	r2, r12
      a0:	1afffff9 	bne	8c <__cs3_region_zero_size_ram+0x44>
      a4:	e515e004 	ldr	lr, [r5, #-4]
      a8:	e35e0000 	cmp	lr, #0
      ac:	11a03002 	movne	r3, r2
      b0:	0a000003 	beq	c4 <__cs3_region_zero_size_ram+0x7c>
      b4:	e8a30003 	stmia	r3!, {r0, r1}
      b8:	e062c003 	rsb	r12, r2, r3
      bc:	e15e000c 	cmp	lr, r12
      c0:	1afffffb 	bne	b4 <__cs3_region_zero_size_ram+0x6c>
      c4:	e2466001 	sub	r6, r6, #1
      c8:	e3760001 	cmn	r6, #1
      cc:	e2855014 	add	r5, r5, #20
      d0:	1affffe3 	bne	64 <__cs3_region_zero_size_ram+0x1c>
      d4:	eb000eea 	bl	3c84 <__cs3_premain>
      d8:	00000001 	.word	0x00000001
      dc:	00003df8 	.word	0x00003df8

000000e0 <__cs3_start_asm_sim>:
      e0:	e28f103c 	add	r1, pc, #60	; 0x3c
      e4:	e3a00016 	mov	r0, #22
      e8:	ef123456 	svc	0x00123456
      ec:	e3500000 	cmp	r0, #0
      f0:	ba000008 	blt	118 <__cs3_start_asm_sim+0x38>
      f4:	e59f2028 	ldr	r2, [pc, #40]	; 124 <__cs3_heap_start_ptr>
      f8:	e59fd01c 	ldr	sp, [pc, #28]	; 11c <__cs3_start_asm_sim+0x3c>
      fc:	e5920008 	ldr	r0, [r2, #8]
     100:	e3500000 	cmp	r0, #0
     104:	11a0d000 	movne	sp, r0
     108:	e59f1010 	ldr	r1, [pc, #16]	; 120 <__cs3_start_asm_sim+0x40>
     10c:	e5920004 	ldr	r0, [r2, #4]
     110:	e3500000 	cmp	r0, #0
     114:	15810000 	strne	r0, [r1]
     118:	eaffffc9 	b	44 <__cs3_start_c>
     11c:	3ffffff8 	.word	0x3ffffff8
     120:	001ce110 	.word	0x001ce110

00000124 <__cs3_heap_start_ptr>:
     124:	001ce160 	.word	0x001ce160

00000128 <_start>:
     128:	e51fd000 	ldr	sp, [pc, #-0]	; 130 <_start+0x8>
     12c:	eaffffc4 	b	44 <__cs3_start_c>
     130:	3ffffff8 	.word	0x3ffffff8

00000134 <deregister_tm_clones>:
     134:	e92d4008 	push	{r3, lr}
     138:	e59f002c 	ldr	r0, [pc, #44]	; 16c <deregister_tm_clones+0x38>
     13c:	e59f302c 	ldr	r3, [pc, #44]	; 170 <deregister_tm_clones+0x3c>
     140:	e0603003 	rsb	r3, r0, r3
     144:	e3530006 	cmp	r3, #6
     148:	8a000001 	bhi	154 <deregister_tm_clones+0x20>
     14c:	e8bd4008 	pop	{r3, lr}
     150:	e12fff1e 	bx	lr
     154:	e59f3018 	ldr	r3, [pc, #24]	; 174 <deregister_tm_clones+0x40>
     158:	e3530000 	cmp	r3, #0
     15c:	0afffffa 	beq	14c <deregister_tm_clones+0x18>
     160:	e1a0e00f 	mov	lr, pc
     164:	e12fff13 	bx	r3
     168:	eafffff7 	b	14c <deregister_tm_clones+0x18>
     16c:	001ce118 	.word	0x001ce118
     170:	001ce11b 	.word	0x001ce11b
     174:	00000000 	.word	0x00000000

00000178 <register_tm_clones>:
     178:	e92d4008 	push	{r3, lr}
     17c:	e59f0034 	ldr	r0, [pc, #52]	; 1b8 <register_tm_clones+0x40>
     180:	e59f3034 	ldr	r3, [pc, #52]	; 1bc <register_tm_clones+0x44>
     184:	e0603003 	rsb	r3, r0, r3
     188:	e1a03143 	asr	r3, r3, #2
     18c:	e0833fa3 	add	r3, r3, r3, lsr #31
     190:	e1b010c3 	asrs	r1, r3, #1
     194:	1a000001 	bne	1a0 <register_tm_clones+0x28>
     198:	e8bd4008 	pop	{r3, lr}
     19c:	e12fff1e 	bx	lr
     1a0:	e59f2018 	ldr	r2, [pc, #24]	; 1c0 <register_tm_clones+0x48>
     1a4:	e3520000 	cmp	r2, #0
     1a8:	0afffffa 	beq	198 <register_tm_clones+0x20>
     1ac:	e1a0e00f 	mov	lr, pc
     1b0:	e12fff12 	bx	r2
     1b4:	eafffff7 	b	198 <register_tm_clones+0x20>
     1b8:	001ce118 	.word	0x001ce118
     1bc:	001ce118 	.word	0x001ce118
     1c0:	00000000 	.word	0x00000000

000001c4 <__do_global_dtors_aux>:
     1c4:	e92d4010 	push	{r4, lr}
     1c8:	e59f402c 	ldr	r4, [pc, #44]	; 1fc <__do_global_dtors_aux+0x38>
     1cc:	e5d43000 	ldrb	r3, [r4]
     1d0:	e3530000 	cmp	r3, #0
     1d4:	1a000006 	bne	1f4 <__do_global_dtors_aux+0x30>
     1d8:	ebffffd5 	bl	134 <deregister_tm_clones>
     1dc:	e59f301c 	ldr	r3, [pc, #28]	; 200 <__do_global_dtors_aux+0x3c>
     1e0:	e3530000 	cmp	r3, #0
     1e4:	159f0018 	ldrne	r0, [pc, #24]	; 204 <__do_global_dtors_aux+0x40>
     1e8:	1320f000 	nopne	{0}
     1ec:	e3a03001 	mov	r3, #1
     1f0:	e5c43000 	strb	r3, [r4]
     1f4:	e8bd4010 	pop	{r4, lr}
     1f8:	e12fff1e 	bx	lr
     1fc:	001ce118 	.word	0x001ce118
     200:	00000000 	.word	0x00000000
     204:	00003d74 	.word	0x00003d74

00000208 <frame_dummy>:
     208:	e92d4008 	push	{r3, lr}
     20c:	e59f3034 	ldr	r3, [pc, #52]	; 248 <frame_dummy+0x40>
     210:	e3530000 	cmp	r3, #0
     214:	159f0030 	ldrne	r0, [pc, #48]	; 24c <frame_dummy+0x44>
     218:	159f1030 	ldrne	r1, [pc, #48]	; 250 <frame_dummy+0x48>
     21c:	1320f000 	nopne	{0}
     220:	e59f002c 	ldr	r0, [pc, #44]	; 254 <frame_dummy+0x4c>
     224:	e5903000 	ldr	r3, [r0]
     228:	e3530000 	cmp	r3, #0
     22c:	0a000003 	beq	240 <frame_dummy+0x38>
     230:	e59f3020 	ldr	r3, [pc, #32]	; 258 <frame_dummy+0x50>
     234:	e3530000 	cmp	r3, #0
     238:	11a0e00f 	movne	lr, pc
     23c:	112fff13 	bxne	r3
     240:	e8bd4008 	pop	{r3, lr}
     244:	eaffffcb 	b	178 <register_tm_clones>
     248:	00000000 	.word	0x00000000
     24c:	00003d74 	.word	0x00003d74
     250:	001ce11c 	.word	0x001ce11c
     254:	00003df8 	.word	0x00003df8
     258:	00000000 	.word	0x00000000

0000025c <__cs3_reset>:
	return;
} 

// Define the remaining exception handlers
void __attribute__ ((interrupt)) __cs3_reset (void)
{
     25c:	eafffffe 	b	25c <__cs3_reset>

00000260 <__cs3_isr_undef>:
    while(1);
}

void __attribute__ ((interrupt)) __cs3_isr_undef (void)
{
     260:	eafffffe 	b	260 <__cs3_isr_undef>

00000264 <__cs3_isr_swi>:
    while(1);
}

void __attribute__ ((interrupt)) __cs3_isr_swi (void)
{
     264:	eafffffe 	b	264 <__cs3_isr_swi>

00000268 <__cs3_isr_pabort>:
    while(1);
}

void __attribute__ ((interrupt)) __cs3_isr_pabort (void)
{
     268:	eafffffe 	b	268 <__cs3_isr_pabort>

0000026c <__cs3_isr_dabort>:
    while(1);
}

void __attribute__ ((interrupt)) __cs3_isr_dabort (void)
{
     26c:	eafffffe 	b	26c <__cs3_isr_dabort>

00000270 <__cs3_isr_fiq>:
    while(1);
}

void __attribute__ ((interrupt)) __cs3_isr_fiq (void)
{
     270:	eafffffe 	b	270 <__cs3_isr_fiq>

00000274 <disable_A9_interrupts>:
 * Turn off interrupts in the ARM processor
*/
void disable_A9_interrupts(void)
{
	int status = 0b11010011;
	asm("msr cpsr, %[ps]" : : [ps]"r"(status));
     274:	e3a030d3 	mov	r3, #211	; 0xd3
     278:	e129f003 	msr	CPSR_fc, r3
     27c:	e12fff1e 	bx	lr

00000280 <set_A9_IRQ_stack>:
{
	int stack, mode;
	stack = A9_ONCHIP_END - 7;		// top of A9 onchip memory, aligned to 8 bytes
	/* change processor to IRQ mode with interrupts disabled */
	mode = INT_DISABLE | IRQ_MODE;
	asm("msr cpsr, %[ps]" : : [ps] "r" (mode));
     280:	e3a030d2 	mov	r3, #210	; 0xd2
     284:	e129f003 	msr	CPSR_fc, r3
	/* set banked stack pointer */
	asm("mov sp, %[ps]" : : [ps] "r" (stack));
     288:	e3e03007 	mvn	r3, #7
     28c:	e1a0d003 	mov	sp, r3

	/* go back to SVC mode before executing subroutine return! */
	mode = INT_DISABLE | SVC_MODE;
	asm("msr cpsr, %[ps]" : : [ps] "r" (mode));
     290:	e3a030d3 	mov	r3, #211	; 0xd3
     294:	e129f003 	msr	CPSR_fc, r3
     298:	e12fff1e 	bx	lr

0000029c <enable_A9_interrupts>:
 * Turn on interrupts in the ARM processor
*/
void enable_A9_interrupts(void)
{
	int status = SVC_MODE | INT_ENABLE;
	asm("msr cpsr, %[ps]" : : [ps]"r"(status));
     29c:	e3a03053 	mov	r3, #83	; 0x53
     2a0:	e129f003 	msr	CPSR_fc, r3
     2a4:	e12fff1e 	bx	lr

000002a8 <config_interrupt>:
 * We configure only the Interrupt Set Enable Registers (ICDISERn) and Interrupt 
 * Processor Target Registers (ICDIPTRn). The default (reset) values are used for 
 * other registers in the GIC
*/
void config_interrupt (int N, int CPU_target)
{
     2a8:	e52d4004 	push	{r4}		; (str r4, [sp, #-4]!)
	int reg_offset, index, value, address;
    
	/* Configure the Interrupt Set-Enable Registers (ICDISERn). 
	 * reg_offset = (integer_div(N / 32) * 4
	 * value = 1 << (N mod 32) */
	reg_offset = (N >> 3) & 0xFFFFFFFC; 
     2ac:	e1a031c0 	asr	r3, r0, #3
     2b0:	e3c33003 	bic	r3, r3, #3
	index = N & 0x1F;
	value = 0x1 << index;
	address = MPCORE_GIC_DIST + ICDISER + reg_offset;
     2b4:	e2433b4b 	sub	r3, r3, #76800	; 0x12c00
    
	/* Configure the Interrupt Set-Enable Registers (ICDISERn). 
	 * reg_offset = (integer_div(N / 32) * 4
	 * value = 1 << (N mod 32) */
	reg_offset = (N >> 3) & 0xFFFFFFFC; 
	index = N & 0x1F;
     2b8:	e200201f 	and	r2, r0, #31
	value = 0x1 << index;
	address = MPCORE_GIC_DIST + ICDISER + reg_offset;
	/* Now that we know the register address and value, set the appropriate bit */
   *(int *)address |= value;
     2bc:	e513c300 	ldr	r12, [r3, #-768]	; 0xfffffd00
     2c0:	e3a04001 	mov	r4, #1
     2c4:	e18c2214 	orr	r2, r12, r4, lsl r2
     2c8:	e5032300 	str	r2, [r3, #-768]	; 0xfffffd00
	 * index = N mod 4 */
	reg_offset = (N & 0xFFFFFFFC);
	index = N & 0x3;
	address = MPCORE_GIC_DIST + ICDIPTR + reg_offset + index;
	/* Now that we know the register address and value, write to (only) the appropriate byte */
	*(char *)address = (char) CPU_target;
     2cc:	e2400b4a 	sub	r0, r0, #75776	; 0x12800
     2d0:	e5c01000 	strb	r1, [r0]
}
     2d4:	e8bd0010 	ldmfd	sp!, {r4}
     2d8:	e12fff1e 	bx	lr

000002dc <config_GIC>:

/* 
 * Configure the Generic Interrupt Controller (GIC)
*/
void config_GIC(void)
{
     2dc:	e92d4010 	push	{r4, lr}
	int address;

	/* configure the FPGA interval timer and KEYs interrupts */
    *((int *)0xFFFED848) = 0x00000101;
     2e0:	e3e04a12 	mvn	r4, #73728	; 0x12000
     2e4:	e3003101 	movw	r3, #257	; 0x101
     2e8:	e50437b7 	str	r3, [r4, #-1975]	; 0xfffff849
    *((int *)0xFFFED108) = 0x00000300;
     2ec:	e3a03c03 	mov	r3, #768	; 0x300
     2f0:	e5043ef7 	str	r3, [r4, #-3831]	; 0xfffff109

  	config_interrupt (KEYS_IRQ, CPU0); 	// configure the FPGA KEYs interrupt
     2f4:	e3a00049 	mov	r0, #73	; 0x49
     2f8:	e3a01001 	mov	r1, #1
     2fc:	ebffffe9 	bl	2a8 <config_interrupt>
	config_interrupt (PS2_IRQ, CPU0);  
     300:	e3a0004f 	mov	r0, #79	; 0x4f
     304:	e3a01001 	mov	r1, #1
     308:	ebffffe6 	bl	2a8 <config_interrupt>
    
  	// Set Interrupt Priority Mask Register (ICCPMR). Enable interrupts of all priorities 
	address = MPCORE_GIC_CPUIF + ICCPMR;
  	*(int *) address = 0xFFFF;       
     30c:	e3e02a13 	mvn	r2, #77824	; 0x13000
     310:	e30f3fff 	movw	r3, #65535	; 0xffff
     314:	e5023efb 	str	r3, [r2, #-3835]	; 0xfffff105

  	// Set CPU Interface Control Register (ICCICR). Enable signaling of interrupts
	address = MPCORE_GIC_CPUIF + ICCICR;
  	*(int *) address = 1;       
     318:	e3a03001 	mov	r3, #1
     31c:	e5023eff 	str	r3, [r2, #-3839]	; 0xfffff101

	// Configure the Distributor Control Register (ICDDCR) to send pending interrupts to CPUs 
	address = MPCORE_GIC_DIST + ICDDCR;
  	*(int *) address = 1;          
     320:	e5043fff 	str	r3, [r4, #-4095]	; 0xfffff001
     324:	e8bd8010 	pop	{r4, pc}

00000328 <config_KEYs>:
/* setup the KEY interrupts in the FPGA */
void config_KEYs()
{
	volatile int * KEY_ptr = (int *) KEY_BASE;	// pushbutton KEY base address

	*(KEY_ptr + 2) = 0xF; 	// enable interrupts for the two KEYs
     328:	e3a03000 	mov	r3, #0
     32c:	e34f3f20 	movt	r3, #65312	; 0xff20
     330:	e3a0200f 	mov	r2, #15
     334:	e5832058 	str	r2, [r3, #88]	; 0x58
     338:	e12fff1e 	bx	lr

0000033c <config_PS2>:

/* setup the PS/2 interrupts */
void config_PS2() {
    volatile int * PS2_ptr = (int *)PS2_BASE; // PS/2 port address

    *(PS2_ptr) = 0xFF; /* reset */
     33c:	e3a03000 	mov	r3, #0
     340:	e34f3f20 	movt	r3, #65312	; 0xff20
     344:	e3a020ff 	mov	r2, #255	; 0xff
     348:	e5832100 	str	r2, [r3, #256]	; 0x100
    *(PS2_ptr + 1) =
     34c:	e3a02001 	mov	r2, #1
     350:	e5832104 	str	r2, [r3, #260]	; 0x104
     354:	e12fff1e 	bx	lr

00000358 <config_interval_timer>:
    volatile int * interval_timer_ptr =
        (int *)TIMER_BASE; // interal timer base address

    /* set the interval timer period for scrolling the HEX displays */
    int counter                 = 1E8; // 1/(100 MHz) x 10 ^ 8 = 1sec
    *(interval_timer_ptr + 0x2) = (counter & 0xFFFF);
     358:	e3a03a02 	mov	r3, #8192	; 0x2000
     35c:	e34f3f20 	movt	r3, #65312	; 0xff20
     360:	e3a02ce1 	mov	r2, #57600	; 0xe100
     364:	e5832008 	str	r2, [r3, #8]
    *(interval_timer_ptr + 0x3) = (counter >> 16) & 0xFFFF;
     368:	e30025f5 	movw	r2, #1525	; 0x5f5
     36c:	e583200c 	str	r2, [r3, #12]

    /* start interval timer, enable its interrupts */
    *(interval_timer_ptr + 1) = 0x7; // STOP = 0, START = 1, CONT = 1, ITO = 1
     370:	e3a02007 	mov	r2, #7
     374:	e5832004 	str	r2, [r3, #4]
     378:	e12fff1e 	bx	lr

0000037c <reset>:
		}
	}
	return;
}

void reset(){
     37c:	e92d0030 	push	{r4, r5}
	//which map 
	map_num = 1;
     380:	e3033e00 	movw	r3, #15872	; 0x3e00
     384:	e3403000 	movt	r3, #0
     388:	e3a0c001 	mov	r12, #1
     38c:	e583c000 	str	r12, [r3]

	lives = 1;
     390:	e583c004 	str	r12, [r3, #4]

	score = 0;
     394:	e30e2134 	movw	r2, #57652	; 0xe134
     398:	e340201c 	movt	r2, #28
     39c:	e3a01000 	mov	r1, #0
     3a0:	e5821000 	str	r1, [r2]

	time_left = 200;
     3a4:	e3a000c8 	mov	r0, #200	; 0xc8
     3a8:	e5830008 	str	r0, [r3, #8]

	//Mario's position
	mario_x = 10;
     3ac:	e3a0000a 	mov	r0, #10
     3b0:	e583000c 	str	r0, [r3, #12]
	mario_y = LOWEST_Y - 25;
     3b4:	e3a000b1 	mov	r0, #177	; 0xb1
     3b8:	e5830010 	str	r0, [r3, #16]

	//up to three bad mushrooms
	isBadMushroom[0] = true;
     3bc:	e5c3c014 	strb	r12, [r3, #20]
	isBadMushroom[1] = true;
     3c0:	e5c3c015 	strb	r12, [r3, #21]
	isBadMushroom[2] = false;
     3c4:	e5c31016 	strb	r1, [r3, #22]
	badMushroom_x[0] = 179;
     3c8:	e3a000b3 	mov	r0, #179	; 0xb3
     3cc:	e5830018 	str	r0, [r3, #24]
	badMushroom_x[1] = 152 - 19;
     3d0:	e3a00085 	mov	r0, #133	; 0x85
     3d4:	e583001c 	str	r0, [r3, #28]
	badMushroom_x[2] = OUT_SCREEN;
     3d8:	e3e00031 	mvn	r0, #49	; 0x31
     3dc:	e5830020 	str	r0, [r3, #32]
	badMushroom_y[0] = LOWEST_Y - 19;
     3e0:	e3a040b7 	mov	r4, #183	; 0xb7
     3e4:	e5834024 	str	r4, [r3, #36]	; 0x24
	badMushroom_y[1] = 131 - 19;
     3e8:	e3a04070 	mov	r4, #112	; 0x70
     3ec:	e5834028 	str	r4, [r3, #40]	; 0x28
	badMushroom_y[2] = OUT_SCREEN;
     3f0:	e583002c 	str	r0, [r3, #44]	; 0x2c
	isBadMushroomMovingRight[0] = false;
     3f4:	e5c21004 	strb	r1, [r2, #4]
	isBadMushroomMovingRight[1] = false;
     3f8:	e5c21005 	strb	r1, [r2, #5]
	isBadMushroomMovingRight[2] = false;
     3fc:	e5c21006 	strb	r1, [r2, #6]

	//up to three moneys
	isMoney[0] = false;
     400:	e5c21008 	strb	r1, [r2, #8]
	isMoney[1] = false;
     404:	e5c21009 	strb	r1, [r2, #9]
	isMoney[2] = false;
     408:	e5c2100a 	strb	r1, [r2, #10]
	money_x[0] = 67;
     40c:	e3a05043 	mov	r5, #67	; 0x43
     410:	e5835030 	str	r5, [r3, #48]	; 0x30
	money_x[1] = OUT_SCREEN;
     414:	e5830034 	str	r0, [r3, #52]	; 0x34
	money_x[2] = OUT_SCREEN;
     418:	e5830038 	str	r0, [r3, #56]	; 0x38
	money_y[0] = 112;
     41c:	e583403c 	str	r4, [r3, #60]	; 0x3c
	money_y[1] = OUT_SCREEN;
     420:	e5830040 	str	r0, [r3, #64]	; 0x40
	money_y[2] = OUT_SCREEN;
     424:	e5830044 	str	r0, [r3, #68]	; 0x44

	//Good mushroom
	isGoodMushroom = false;
     428:	e5c2100b 	strb	r1, [r2, #11]
	goodMushroom_x = 118;
     42c:	e3a00076 	mov	r0, #118	; 0x76
     430:	e5830048 	str	r0, [r3, #72]	; 0x48
	goodMushroom_y = 112;
     434:	e583404c 	str	r4, [r3, #76]	; 0x4c

	//turtle
	isTurtle = false;
     438:	e5c2100c 	strb	r1, [r2, #12]
	isTurtleMovingRight = true;
     43c:	e5c3c050 	strb	r12, [r3, #80]	; 0x50
	turtle_x = 43;
     440:	e3a0002b 	mov	r0, #43	; 0x2b
     444:	e5830054 	str	r0, [r3, #84]	; 0x54
	turtle_y = 93 - 28;
     448:	e3a00041 	mov	r0, #65	; 0x41
     44c:	e5830058 	str	r0, [r3, #88]	; 0x58

	byte1 = 0;
     450:	e5c2100d 	strb	r1, [r2, #13]
	byte2 = 0;
     454:	e5c2100e 	strb	r1, [r2, #14]
	byte3 = 0; // PS/2 variables
     458:	e5c2100f 	strb	r1, [r2, #15]

	isWin = false;
     45c:	e5c21010 	strb	r1, [r2, #16]
	isGameOver = false;
     460:	e5c21011 	strb	r1, [r2, #17]
}
     464:	e8bd0030 	pop	{r4, r5}
     468:	e12fff1e 	bx	lr

0000046c <PS2_ISR>:
	*LED_ptr = LED_bits;
	return;
}

void PS2_ISR( void )
{
     46c:	e92d4008 	push	{r3, lr}
  	volatile int * PS2_ptr = (int *) 0xFF200100;		// PS/2 port address
	int PS2_data, RAVAIL;

	PS2_data = *(PS2_ptr);									// read the Data register in the PS/2 port
     470:	e3a03000 	mov	r3, #0
     474:	e34f3f20 	movt	r3, #65312	; 0xff20
     478:	e5932100 	ldr	r2, [r3, #256]	; 0x100
	RAVAIL = (PS2_data & 0xFFFF0000) >> 16;			// extract the RAVAIL field
	if (RAVAIL > 0)
     47c:	e1b03822 	lsrs	r3, r2, #16
     480:	08bd8008 	popeq	{r3, pc}
	{
		/* always save the last three bytes received */
		byte1 = byte2;
     484:	e30e3134 	movw	r3, #57652	; 0xe134
     488:	e340301c 	movt	r3, #28
     48c:	e5d3100e 	ldrb	r1, [r3, #14]
     490:	e5c3100d 	strb	r1, [r3, #13]
		byte2 = byte3;
     494:	e5d3100f 	ldrb	r1, [r3, #15]
     498:	e5c3100e 	strb	r1, [r3, #14]
		byte3 = PS2_data & 0xFF;
     49c:	e6ef2072 	uxtb	r2, r2
     4a0:	e5c3200f 	strb	r2, [r3, #15]
		if ( (byte2 == (char) 0xE0) && (byte3 == (char) 0x6B) ) //left arrow
     4a4:	e5d3300e 	ldrb	r3, [r3, #14]
     4a8:	e35300e0 	cmp	r3, #224	; 0xe0
     4ac:	1a000009 	bne	4d8 <PS2_ISR+0x6c>
     4b0:	e30e3134 	movw	r3, #57652	; 0xe134
     4b4:	e340301c 	movt	r3, #28
     4b8:	e5d3300f 	ldrb	r3, [r3, #15]
     4bc:	e353006b 	cmp	r3, #107	; 0x6b
     4c0:	1a000004 	bne	4d8 <PS2_ISR+0x6c>
			mario_move_backward = true;
     4c4:	e30e3134 	movw	r3, #57652	; 0xe134
     4c8:	e340301c 	movt	r3, #28
     4cc:	e3a02001 	mov	r2, #1
     4d0:	e5c32012 	strb	r2, [r3, #18]
     4d4:	e8bd8008 	pop	{r3, pc}
		else if ( (byte2 == (char) 0xE0) && (byte3 == (char) 0x74) ) //right arrow
     4d8:	e30e3134 	movw	r3, #57652	; 0xe134
     4dc:	e340301c 	movt	r3, #28
     4e0:	e5d3300e 	ldrb	r3, [r3, #14]
     4e4:	e35300e0 	cmp	r3, #224	; 0xe0
     4e8:	1a000009 	bne	514 <PS2_ISR+0xa8>
     4ec:	e30e3134 	movw	r3, #57652	; 0xe134
     4f0:	e340301c 	movt	r3, #28
     4f4:	e5d3300f 	ldrb	r3, [r3, #15]
     4f8:	e3530074 	cmp	r3, #116	; 0x74
     4fc:	1a000004 	bne	514 <PS2_ISR+0xa8>
			mario_move_forward = true;
     500:	e30e3134 	movw	r3, #57652	; 0xe134
     504:	e340301c 	movt	r3, #28
     508:	e3a02001 	mov	r2, #1
     50c:	e5c32013 	strb	r2, [r3, #19]
     510:	e8bd8008 	pop	{r3, pc}
		else if (byte3 == (char) 0x29) //space bar
     514:	e30e3134 	movw	r3, #57652	; 0xe134
     518:	e340301c 	movt	r3, #28
     51c:	e5d3300f 	ldrb	r3, [r3, #15]
     520:	e3530029 	cmp	r3, #41	; 0x29
     524:	1a000004 	bne	53c <PS2_ISR+0xd0>
			mario_jump = true;
     528:	e30e3134 	movw	r3, #57652	; 0xe134
     52c:	e340301c 	movt	r3, #28
     530:	e3a02001 	mov	r2, #1
     534:	e5c32014 	strb	r2, [r3, #20]
     538:	e8bd8008 	pop	{r3, pc}
		else if (byte3 == (char) 0x5A && (isFirstTime || isWin || isGameOver)){ //enter
     53c:	e30e3134 	movw	r3, #57652	; 0xe134
     540:	e340301c 	movt	r3, #28
     544:	e5d3300f 	ldrb	r3, [r3, #15]
     548:	e353005a 	cmp	r3, #90	; 0x5a
     54c:	18bd8008 	popne	{r3, pc}
     550:	e3033e00 	movw	r3, #15872	; 0x3e00
     554:	e3403000 	movt	r3, #0
     558:	e5d3305c 	ldrb	r3, [r3, #92]	; 0x5c
     55c:	e3530000 	cmp	r3, #0
     560:	1a00000a 	bne	590 <PS2_ISR+0x124>
     564:	e30e3134 	movw	r3, #57652	; 0xe134
     568:	e340301c 	movt	r3, #28
     56c:	e5d33010 	ldrb	r3, [r3, #16]
     570:	e3530000 	cmp	r3, #0
     574:	1a000009 	bne	5a0 <PS2_ISR+0x134>
     578:	e30e3134 	movw	r3, #57652	; 0xe134
     57c:	e340301c 	movt	r3, #28
     580:	e5d33011 	ldrb	r3, [r3, #17]
     584:	e3530000 	cmp	r3, #0
     588:	08bd8008 	popeq	{r3, pc}
     58c:	ea000003 	b	5a0 <PS2_ISR+0x134>
			if (isFirstTime){
				isFirstTime = false;
     590:	e3033e00 	movw	r3, #15872	; 0x3e00
     594:	e3403000 	movt	r3, #0
     598:	e3a02000 	mov	r2, #0
     59c:	e5c3205c 	strb	r2, [r3, #92]	; 0x5c
			}
			reset();
     5a0:	ebffff75 	bl	37c <reset>
     5a4:	e8bd8008 	pop	{r3, pc}

000005a8 <pushbutton_ISR>:
}


//Iterrupt Service Routine
void pushbutton_ISR( void )
{
     5a8:	e92d4008 	push	{r3, lr}
	volatile int * KEY_ptr = (int *) KEY_BASE;
	volatile int * LED_ptr = (int *) LED_BASE;
	int press, LED_bits;

	press = *(KEY_ptr + 3);					// read the pushbutton interrupt register
     5ac:	e3a02000 	mov	r2, #0
     5b0:	e34f2f20 	movt	r2, #65312	; 0xff20
     5b4:	e592305c 	ldr	r3, [r2, #92]	; 0x5c
	*(KEY_ptr + 3) = press;					// Clear the interrupt
     5b8:	e582305c 	str	r3, [r2, #92]	; 0x5c
    
	if (press & 0x1){							// KEY0
     5bc:	e3130001 	tst	r3, #1
     5c0:	0a000004 	beq	5d8 <pushbutton_ISR+0x30>
        mario_move_forward = true;
     5c4:	e30e3134 	movw	r3, #57652	; 0xe134
     5c8:	e340301c 	movt	r3, #28
     5cc:	e3a01001 	mov	r1, #1
     5d0:	e5c31013 	strb	r1, [r3, #19]
     5d4:	ea00001f 	b	658 <pushbutton_ISR+0xb0>
        LED_bits = 0b1;
    }else if (press & 0x2){					// KEY1
     5d8:	e3130002 	tst	r3, #2
     5dc:	0a000005 	beq	5f8 <pushbutton_ISR+0x50>
        mario_move_backward = true;
     5e0:	e30e3134 	movw	r3, #57652	; 0xe134
     5e4:	e340301c 	movt	r3, #28
     5e8:	e3a02001 	mov	r2, #1
     5ec:	e5c32012 	strb	r2, [r3, #18]
        LED_bits = 0b10;
     5f0:	e3a01002 	mov	r1, #2
     5f4:	ea000017 	b	658 <pushbutton_ISR+0xb0>
    }else if (press & 0x4){					// KEY2
     5f8:	e3130004 	tst	r3, #4
     5fc:	0a000005 	beq	618 <pushbutton_ISR+0x70>
		mario_jump = true;
     600:	e30e3134 	movw	r3, #57652	; 0xe134
     604:	e340301c 	movt	r3, #28
     608:	e3a02001 	mov	r2, #1
     60c:	e5c32014 	strb	r2, [r3, #20]
        LED_bits = 0b100;
     610:	e3a01004 	mov	r1, #4
     614:	ea00000f 	b	658 <pushbutton_ISR+0xb0>
    }else if (press & 0x8){					// KEY3
     618:	e3130008 	tst	r3, #8
     61c:	0a00000d 	beq	658 <pushbutton_ISR+0xb0>
        if (isWin || isGameOver){
     620:	e30e3134 	movw	r3, #57652	; 0xe134
     624:	e340301c 	movt	r3, #28
     628:	e5d33010 	ldrb	r3, [r3, #16]
     62c:	e3530000 	cmp	r3, #0
     630:	1a000005 	bne	64c <pushbutton_ISR+0xa4>
     634:	e30e3134 	movw	r3, #57652	; 0xe134
     638:	e340301c 	movt	r3, #28
     63c:	e5d33011 	ldrb	r3, [r3, #17]
     640:	e3530000 	cmp	r3, #0
			reset();
		}
        LED_bits = 0b1000;
     644:	03a01008 	moveq	r1, #8
        LED_bits = 0b10;
    }else if (press & 0x4){					// KEY2
		mario_jump = true;
        LED_bits = 0b100;
    }else if (press & 0x8){					// KEY3
        if (isWin || isGameOver){
     648:	0a000002 	beq	658 <pushbutton_ISR+0xb0>
			reset();
     64c:	ebffff4a 	bl	37c <reset>
		}
        LED_bits = 0b1000;
     650:	e3a01008 	mov	r1, #8
     654:	eaffffff 	b	658 <pushbutton_ISR+0xb0>
    }

	*LED_ptr = LED_bits;
     658:	e3a03000 	mov	r3, #0
     65c:	e34f3f20 	movt	r3, #65312	; 0xff20
     660:	e5831000 	str	r1, [r3]
     664:	e8bd8008 	pop	{r3, pc}

00000668 <interval_timer_ISR>:

void interval_timer_ISR()
{
    volatile int * interval_timer_ptr = (int *)TIMER_BASE;

    *(interval_timer_ptr) = 0; // Clear the interrupt
     668:	e3a03a02 	mov	r3, #8192	; 0x2000
     66c:	e34f3f20 	movt	r3, #65312	; 0xff20
     670:	e3a02000 	mov	r2, #0
     674:	e5832000 	str	r2, [r3]

	if (!isWin && !isGameOver){
     678:	e30e3134 	movw	r3, #57652	; 0xe134
     67c:	e340301c 	movt	r3, #28
     680:	e5d33010 	ldrb	r3, [r3, #16]
     684:	e1530002 	cmp	r3, r2
     688:	112fff1e 	bxne	lr
     68c:	e30e3134 	movw	r3, #57652	; 0xe134
     690:	e340301c 	movt	r3, #28
     694:	e5d33011 	ldrb	r3, [r3, #17]
     698:	e1530002 	cmp	r3, r2
     69c:	112fff1e 	bxne	lr
		time_left--;
     6a0:	e3033e00 	movw	r3, #15872	; 0x3e00
     6a4:	e3403000 	movt	r3, #0
     6a8:	e5932008 	ldr	r2, [r3, #8]
     6ac:	e2422001 	sub	r2, r2, #1
     6b0:	e5832008 	str	r2, [r3, #8]
		if (time_left == 0){
     6b4:	e3520000 	cmp	r2, #0
			isGameOver = true;
     6b8:	030e3134 	movweq	r3, #57652	; 0xe134
     6bc:	0340301c 	movteq	r3, #28
     6c0:	03a02001 	moveq	r2, #1
     6c4:	05c32011 	strbeq	r2, [r3, #17]
     6c8:	e12fff1e 	bx	lr

000006cc <__cs3_isr_irq>:
void interval_timer_ISR();
void reset();

// Define the IRQ exception handler
void __attribute__ ((interrupt)) __cs3_isr_irq (void)
{
     6cc:	e24ee004 	sub	lr, lr, #4
     6d0:	e92d503f 	push	{r0, r1, r2, r3, r4, r5, r12, lr}
	// Read the ICCIAR from the CPU interface in the GIC
	int address;
	int interrupt_ID;
	
	address = MPCORE_GIC_CPUIF + ICCIAR;
	interrupt_ID = *(int *)address;
     6d4:	e3e03a13 	mvn	r3, #77824	; 0x13000
     6d8:	e5134ef3 	ldr	r4, [r3, #-3827]	; 0xfffff10d
   
	if (interrupt_ID == KEYS_IRQ)		// check if interrupt is from the KEYs
     6dc:	e3540049 	cmp	r4, #73	; 0x49
     6e0:	1a000001 	bne	6ec <__cs3_isr_irq+0x20>
		pushbutton_ISR ();
     6e4:	ebffffaf 	bl	5a8 <pushbutton_ISR>
     6e8:	ea000008 	b	710 <__cs3_isr_irq+0x44>
	else if (interrupt_ID == PS2_IRQ)				// check if interrupt is from the PS/2
     6ec:	e354004f 	cmp	r4, #79	; 0x4f
     6f0:	1a000001 	bne	6fc <__cs3_isr_irq+0x30>
		PS2_ISR ();
     6f4:	ebffff5c 	bl	46c <PS2_ISR>
     6f8:	ea000004 	b	710 <__cs3_isr_irq+0x44>
	else if (interrupt_ID ==
     6fc:	e3540048 	cmp	r4, #72	; 0x48
     700:	1a000001 	bne	70c <__cs3_isr_irq+0x40>
             INTERVAL_TIMER_IRQ) // check if interrupt is from the Altera timer
        interval_timer_ISR();
     704:	ebffffd7 	bl	668 <interval_timer_ISR>
     708:	ea000000 	b	710 <__cs3_isr_irq+0x44>
     70c:	eafffffe 	b	70c <__cs3_isr_irq+0x40>
	else
		while (1);							// if unexpected, then stay here

	// Write to the End of Interrupt Register (ICCEOIR)
	address = MPCORE_GIC_CPUIF + ICCEOIR;
	*(int *)address = interrupt_ID;
     710:	e3e03a13 	mvn	r3, #77824	; 0x13000
     714:	e5034eef 	str	r4, [r3, #-3823]	; 0xfffff111
     718:	e8fd903f 	ldm	sp!, {r0, r1, r2, r3, r4, r5, r12, pc}^

0000071c <reset_characters>:
}

void reset_characters(){

    //reset Mario's position
    mario_x = 10;
     71c:	e3033e00 	movw	r3, #15872	; 0x3e00
     720:	e3403000 	movt	r3, #0
     724:	e3a0200a 	mov	r2, #10
     728:	e583200c 	str	r2, [r3, #12]
    mario_y = LOWEST_Y - 25;
     72c:	e3a020b1 	mov	r2, #177	; 0xb1
     730:	e5832010 	str	r2, [r3, #16]

    for (int i = 0; i < 3; i++)
    {
        isMoney[i] = false;
     734:	e30e2134 	movw	r2, #57652	; 0xe134
     738:	e340201c 	movt	r2, #28
     73c:	e3a01000 	mov	r1, #0
     740:	e5c21008 	strb	r1, [r2, #8]
     744:	e5c21009 	strb	r1, [r2, #9]
     748:	e5c2100a 	strb	r1, [r2, #10]
    }

    if (map_num == 2){
     74c:	e5933000 	ldr	r3, [r3]
     750:	e3530002 	cmp	r3, #2
     754:	1a00001c 	bne	7cc <reset_characters+0xb0>
        for (int i = 0; i < 3; i++)
        {
            isBadMushroom[i] = true;
     758:	e3033e00 	movw	r3, #15872	; 0x3e00
     75c:	e3403000 	movt	r3, #0
     760:	e3a02001 	mov	r2, #1
     764:	e5c32014 	strb	r2, [r3, #20]
            badMushroom_y[i] = LOWEST_Y - 19;            
     768:	e3a010b7 	mov	r1, #183	; 0xb7
     76c:	e5831024 	str	r1, [r3, #36]	; 0x24
    }

    if (map_num == 2){
        for (int i = 0; i < 3; i++)
        {
            isBadMushroom[i] = true;
     770:	e5c32015 	strb	r2, [r3, #21]
            badMushroom_y[i] = LOWEST_Y - 19;            
     774:	e5831028 	str	r1, [r3, #40]	; 0x28
    }

    if (map_num == 2){
        for (int i = 0; i < 3; i++)
        {
            isBadMushroom[i] = true;
     778:	e5c32016 	strb	r2, [r3, #22]
            badMushroom_y[i] = LOWEST_Y - 19;            
     77c:	e583102c 	str	r1, [r3, #44]	; 0x2c
        }
        
        isTurtle = true;
     780:	e30e1134 	movw	r1, #57652	; 0xe134
     784:	e340101c 	movt	r1, #28
     788:	e5c1200c 	strb	r2, [r1, #12]

        badMushroom_x[0] = 196;
     78c:	e3a020c4 	mov	r2, #196	; 0xc4
     790:	e5832018 	str	r2, [r3, #24]
        badMushroom_x[1] = 152;
     794:	e3a02098 	mov	r2, #152	; 0x98
     798:	e583201c 	str	r2, [r3, #28]
        badMushroom_x[2] = 100;
     79c:	e3a02064 	mov	r2, #100	; 0x64
     7a0:	e5832020 	str	r2, [r3, #32]

        money_x[0] = steps_2_R_low_x;
     7a4:	e5932060 	ldr	r2, [r3, #96]	; 0x60
     7a8:	e5832030 	str	r2, [r3, #48]	; 0x30
        money_y[0] = 113;
     7ac:	e3a02071 	mov	r2, #113	; 0x71
     7b0:	e583203c 	str	r2, [r3, #60]	; 0x3c
        money_x[1] = money_x[2] = money_y[1] = money_y[2] = OUT_SCREEN;
     7b4:	e3e02031 	mvn	r2, #49	; 0x31
     7b8:	e5832044 	str	r2, [r3, #68]	; 0x44
     7bc:	e5832040 	str	r2, [r3, #64]	; 0x40
     7c0:	e5832038 	str	r2, [r3, #56]	; 0x38
     7c4:	e5832034 	str	r2, [r3, #52]	; 0x34
     7c8:	e12fff1e 	bx	lr
        
    } else if (map_num == 3){
     7cc:	e3530003 	cmp	r3, #3
     7d0:	112fff1e 	bxne	lr
        isBadMushroom[0] = true;
     7d4:	e3033e00 	movw	r3, #15872	; 0x3e00
     7d8:	e3403000 	movt	r3, #0
     7dc:	e3a02001 	mov	r2, #1
     7e0:	e5c32014 	strb	r2, [r3, #20]
        isBadMushroom[1] = false;
     7e4:	e3a02000 	mov	r2, #0
     7e8:	e5c32015 	strb	r2, [r3, #21]
        isBadMushroom[2] = false;
     7ec:	e5c32016 	strb	r2, [r3, #22]

        badMushroom_x[0] = 96;
     7f0:	e3a02060 	mov	r2, #96	; 0x60
     7f4:	e5832018 	str	r2, [r3, #24]
        badMushroom_y[0] = LOWEST_Y - 19; 
     7f8:	e3a020b7 	mov	r2, #183	; 0xb7
     7fc:	e5832024 	str	r2, [r3, #36]	; 0x24
     800:	e12fff1e 	bx	lr

00000804 <turtle_update_location>:
    }
}

void turtle_update_location(){
     804:	e92d4070 	push	{r4, r5, r6, lr}
    if (isTurtle){
     808:	e30e3134 	movw	r3, #57652	; 0xe134
     80c:	e340301c 	movt	r3, #28
     810:	e5d3300c 	ldrb	r3, [r3, #12]
     814:	e3530000 	cmp	r3, #0
     818:	08bd8070 	popeq	{r4, r5, r6, pc}
        //bouncing 
        if (turtle_x <= steps_2_L_low_x){
     81c:	e3033e00 	movw	r3, #15872	; 0x3e00
     820:	e3403000 	movt	r3, #0
     824:	e5932054 	ldr	r2, [r3, #84]	; 0x54
     828:	e5933064 	ldr	r3, [r3, #100]	; 0x64
     82c:	e1520003 	cmp	r2, r3
     830:	ca000004 	bgt	848 <turtle_update_location+0x44>
            isTurtleMovingRight = true;
     834:	e3033e00 	movw	r3, #15872	; 0x3e00
     838:	e3403000 	movt	r3, #0
     83c:	e3a01001 	mov	r1, #1
     840:	e5c31050 	strb	r1, [r3, #80]	; 0x50
     844:	ea00000f 	b	888 <turtle_update_location+0x84>
        } else if (turtle_x + 19 >= steps_2_L_high_x){
     848:	e2821013 	add	r1, r2, #19
     84c:	e3033e00 	movw	r3, #15872	; 0x3e00
     850:	e3403000 	movt	r3, #0
     854:	e5933068 	ldr	r3, [r3, #104]	; 0x68
     858:	e1510003 	cmp	r1, r3
     85c:	ba000004 	blt	874 <turtle_update_location+0x70>
            isTurtleMovingRight = false;
     860:	e3033e00 	movw	r3, #15872	; 0x3e00
     864:	e3403000 	movt	r3, #0
     868:	e3a01000 	mov	r1, #0
     86c:	e5c31050 	strb	r1, [r3, #80]	; 0x50
     870:	ea000009 	b	89c <turtle_update_location+0x98>
        }

        if (isTurtleMovingRight){
     874:	e3033e00 	movw	r3, #15872	; 0x3e00
     878:	e3403000 	movt	r3, #0
     87c:	e5d33050 	ldrb	r3, [r3, #80]	; 0x50
     880:	e3530000 	cmp	r3, #0
     884:	0a000004 	beq	89c <turtle_update_location+0x98>
            turtle_x += BAD_MUSHROOM_SPEED;
     888:	e3033e00 	movw	r3, #15872	; 0x3e00
     88c:	e3403000 	movt	r3, #0
     890:	e2822001 	add	r2, r2, #1
     894:	e5832054 	str	r2, [r3, #84]	; 0x54
     898:	ea000003 	b	8ac <turtle_update_location+0xa8>
        } else{
            turtle_x -= BAD_MUSHROOM_SPEED;
     89c:	e3033e00 	movw	r3, #15872	; 0x3e00
     8a0:	e3403000 	movt	r3, #0
     8a4:	e2422001 	sub	r2, r2, #1
     8a8:	e5832054 	str	r2, [r3, #84]	; 0x54
        }

        //check whether mario dies
        if (turtle_x <= mario_x + MARIO_MID && turtle_x + 19 >= mario_x + MARIO_MID  && turtle_y + 28 >= mario_y && mario_y + 25 >= turtle_y){
     8ac:	e3033e00 	movw	r3, #15872	; 0x3e00
     8b0:	e3403000 	movt	r3, #0
     8b4:	e5936054 	ldr	r6, [r3, #84]	; 0x54
     8b8:	e593000c 	ldr	r0, [r3, #12]
     8bc:	eb000a5f 	bl	3240 <__aeabi_i2d>
     8c0:	e3a02000 	mov	r2, #0
     8c4:	e3a03000 	mov	r3, #0
     8c8:	e3443029 	movt	r3, #16425	; 0x4029
     8cc:	eb00098e 	bl	2f0c <__adddf3>
     8d0:	e1a04000 	mov	r4, r0
     8d4:	e1a05001 	mov	r5, r1
     8d8:	e1a00006 	mov	r0, r6
     8dc:	eb000a57 	bl	3240 <__aeabi_i2d>
     8e0:	e1a02004 	mov	r2, r4
     8e4:	e1a03005 	mov	r3, r5
     8e8:	eb000bf1 	bl	38b4 <__aeabi_dcmple>
     8ec:	e3500000 	cmp	r0, #0
     8f0:	08bd8070 	popeq	{r4, r5, r6, pc}
     8f4:	e2860013 	add	r0, r6, #19
     8f8:	eb000a50 	bl	3240 <__aeabi_i2d>
     8fc:	e1a02000 	mov	r2, r0
     900:	e1a03001 	mov	r3, r1
     904:	e1a00004 	mov	r0, r4
     908:	e1a01005 	mov	r1, r5
     90c:	eb000be8 	bl	38b4 <__aeabi_dcmple>
     910:	e3500000 	cmp	r0, #0
     914:	08bd8070 	popeq	{r4, r5, r6, pc}
     918:	e3033e00 	movw	r3, #15872	; 0x3e00
     91c:	e3403000 	movt	r3, #0
     920:	e5932058 	ldr	r2, [r3, #88]	; 0x58
     924:	e5933010 	ldr	r3, [r3, #16]
     928:	e282101c 	add	r1, r2, #28
     92c:	e1510003 	cmp	r1, r3
     930:	b8bd8070 	poplt	{r4, r5, r6, pc}
     934:	e2833019 	add	r3, r3, #25
     938:	e1520003 	cmp	r2, r3
     93c:	c8bd8070 	popgt	{r4, r5, r6, pc}
            lives--;
     940:	e3033e00 	movw	r3, #15872	; 0x3e00
     944:	e3403000 	movt	r3, #0
     948:	e5932004 	ldr	r2, [r3, #4]
     94c:	e2422001 	sub	r2, r2, #1
     950:	e5832004 	str	r2, [r3, #4]
            //reset Mario's position
            mario_x = 10;
     954:	e3a0200a 	mov	r2, #10
     958:	e583200c 	str	r2, [r3, #12]
            mario_y = LOWEST_Y - 25;
     95c:	e3a020b1 	mov	r2, #177	; 0xb1
     960:	e5832010 	str	r2, [r3, #16]
     964:	e8bd8070 	pop	{r4, r5, r6, pc}

00000968 <beat_turtle>:
    
}

void beat_turtle(){

    if (isTurtle && mario_x + 25 >= turtle_x && mario_x <= turtle_x + 19 && mario_y + 25 <= turtle_y){
     968:	e30e3134 	movw	r3, #57652	; 0xe134
     96c:	e340301c 	movt	r3, #28
     970:	e5d3300c 	ldrb	r3, [r3, #12]
     974:	e3530000 	cmp	r3, #0
     978:	012fff1e 	bxeq	lr
     97c:	e3033e00 	movw	r3, #15872	; 0x3e00
     980:	e3403000 	movt	r3, #0
     984:	e593200c 	ldr	r2, [r3, #12]
     988:	e5933054 	ldr	r3, [r3, #84]	; 0x54
     98c:	e2821019 	add	r1, r2, #25
     990:	e1510003 	cmp	r1, r3
     994:	b12fff1e 	bxlt	lr
     998:	e2833013 	add	r3, r3, #19
     99c:	e1520003 	cmp	r2, r3
     9a0:	c12fff1e 	bxgt	lr
     9a4:	e3033e00 	movw	r3, #15872	; 0x3e00
     9a8:	e3403000 	movt	r3, #0
     9ac:	e5932010 	ldr	r2, [r3, #16]
     9b0:	e5933058 	ldr	r3, [r3, #88]	; 0x58
     9b4:	e2821019 	add	r1, r2, #25
     9b8:	e1510003 	cmp	r1, r3
     9bc:	c12fff1e 	bxgt	lr
        if (mario_y + 25 + GRAVITY_FALL >= turtle_y){
     9c0:	e282201c 	add	r2, r2, #28
     9c4:	e1530002 	cmp	r3, r2
     9c8:	c12fff1e 	bxgt	lr
            isTurtle = false;
     9cc:	e30e2134 	movw	r2, #57652	; 0xe134
     9d0:	e340201c 	movt	r2, #28
     9d4:	e3a01000 	mov	r1, #0
     9d8:	e5c2100c 	strb	r1, [r2, #12]
            turtle_x = OUT_SCREEN;
     9dc:	e3033e00 	movw	r3, #15872	; 0x3e00
     9e0:	e3403000 	movt	r3, #0
     9e4:	e3e00031 	mvn	r0, #49	; 0x31
     9e8:	e5830054 	str	r0, [r3, #84]	; 0x54
            turtle_y = OUT_SCREEN;
     9ec:	e5830058 	str	r0, [r3, #88]	; 0x58
     9f0:	e5920000 	ldr	r0, [r2]
            for (int i = 0; i < 3; i++)
            {
                isBadMushroom[i] = false;
     9f4:	e5c31014 	strb	r1, [r3, #20]
     9f8:	e5c31015 	strb	r1, [r3, #21]
     9fc:	e5c31016 	strb	r1, [r3, #22]
     a00:	e2803003 	add	r3, r0, #3
     a04:	e5823000 	str	r3, [r2]
     a08:	e12fff1e 	bx	lr

00000a0c <bad_mushroom_update_location>:
    }

    return;
}

void bad_mushroom_update_location(){
     a0c:	e92d4ff0 	push	{r4, r5, r6, r7, r8, r9, r10, r11, lr}
     a10:	e24dd024 	sub	sp, sp, #36	; 0x24
    //bad mushroom move to left automatically
    for (int i = 0; i < 3; i++)
    {
        if (map_num == 1){
     a14:	e3033e00 	movw	r3, #15872	; 0x3e00
     a18:	e3403000 	movt	r3, #0
     a1c:	e593a000 	ldr	r10, [r3]
            if (isBadMushroom[i] && badMushroom_x[i] + 19 >= 0){
                badMushroom_x[i] -= BAD_MUSHROOM_SPEED;
            }

            //gravitational falling of bad mush room
            if (isBadMushroom[i] && badMushroom_x[i] + 19 * 0.5 <= steps_1_low_x && badMushroom_y[i] + 19 < LOWEST_Y){
     a20:	e593106c 	ldr	r1, [r3, #108]	; 0x6c
     a24:	e58d1018 	str	r1, [sp, #24]
                    badMushroom_y[i] = LOWEST_Y - 19;
                }
            }
        } else if (map_num == 2){
            //bouncing between two pipes
            if (badMushroom_x[i] <= pipe_2_L_high_x){
     a28:	e5932070 	ldr	r2, [r3, #112]	; 0x70
     a2c:	e58d2014 	str	r2, [sp, #20]
                isBadMushroomMovingRight[i] = true;
            } else if (badMushroom_x[i] + 19 >= pipe_2_R_low_x){
     a30:	e5931074 	ldr	r1, [r3, #116]	; 0x74
     a34:	e58d101c 	str	r1, [sp, #28]
                badMushroom_x[i] -= BAD_MUSHROOM_SPEED;
            }

        } else{
            //bouncing 
            if (badMushroom_x[i] <= pipe_3_high_x){
     a38:	e5932078 	ldr	r2, [r3, #120]	; 0x78
     a3c:	e58d200c 	str	r2, [sp, #12]
     a40:	e593100c 	ldr	r1, [r3, #12]
     a44:	e58d1004 	str	r1, [sp, #4]
     a48:	e5932010 	ldr	r2, [r3, #16]
     a4c:	e58d2008 	str	r2, [sp, #8]
     a50:	e5933004 	ldr	r3, [r3, #4]
     a54:	e58d3010 	str	r3, [sp, #16]
     a58:	e3a07000 	mov	r7, #0
    return;
}

void bad_mushroom_update_location(){
    //bad mushroom move to left automatically
    for (int i = 0; i < 3; i++)
     a5c:	e1a06007 	mov	r6, r7
                badMushroom_x[i] -= BAD_MUSHROOM_SPEED;
            }

        } else{
            //bouncing 
            if (badMushroom_x[i] <= pipe_3_high_x){
     a60:	e3038e00 	movw	r8, #15872	; 0x3e00
     a64:	e3408000 	movt	r8, #0
                isBadMushroomMovingRight[i] = true;
            } else if (badMushroom_x[i] + 19 >= 224){
                isBadMushroomMovingRight[i] = false;
            }

            if (isBadMushroomMovingRight[i]){
     a68:	e30e9134 	movw	r9, #57652	; 0xe134
     a6c:	e340901c 	movt	r9, #28

void bad_mushroom_update_location(){
    //bad mushroom move to left automatically
    for (int i = 0; i < 3; i++)
    {
        if (map_num == 1){
     a70:	e35a0001 	cmp	r10, #1
     a74:	1a000018 	bne	adc <bad_mushroom_update_location+0xd0>
            if (isBadMushroom[i] && badMushroom_x[i] + 19 >= 0){
     a78:	e2883014 	add	r3, r8, #20
     a7c:	e7d63003 	ldrb	r3, [r6, r3]
     a80:	e3530000 	cmp	r3, #0
     a84:	0a00004a 	beq	bb4 <bad_mushroom_update_location+0x1a8>
     a88:	e2883018 	add	r3, r8, #24
     a8c:	e7973003 	ldr	r3, [r7, r3]
     a90:	e3730013 	cmn	r3, #19
                badMushroom_x[i] -= BAD_MUSHROOM_SPEED;
     a94:	52882018 	addpl	r2, r8, #24
     a98:	52433001 	subpl	r3, r3, #1
     a9c:	57873002 	strpl	r3, [r7, r2]
     aa0:	ea00007e 	b	ca0 <bad_mushroom_update_location+0x294>
            }

            //gravitational falling of bad mush room
            if (isBadMushroom[i] && badMushroom_x[i] + 19 * 0.5 <= steps_1_low_x && badMushroom_y[i] + 19 < LOWEST_Y){
     aa4:	e2883024 	add	r3, r8, #36	; 0x24
     aa8:	e7973003 	ldr	r3, [r7, r3]
     aac:	e2832013 	add	r2, r3, #19
     ab0:	e35200c9 	cmp	r2, #201	; 0xc9
     ab4:	ca00003e 	bgt	bb4 <bad_mushroom_update_location+0x1a8>
                badMushroom_y[i] += GRAVITY_FALL;
                if (badMushroom_y[i] + GRAVITY_FALL >= LOWEST_Y - 19){
     ab8:	e2832006 	add	r2, r3, #6
     abc:	e35200b6 	cmp	r2, #182	; 0xb6
                badMushroom_x[i] -= BAD_MUSHROOM_SPEED;
            }

            //gravitational falling of bad mush room
            if (isBadMushroom[i] && badMushroom_x[i] + 19 * 0.5 <= steps_1_low_x && badMushroom_y[i] + 19 < LOWEST_Y){
                badMushroom_y[i] += GRAVITY_FALL;
     ac0:	d2882024 	addle	r2, r8, #36	; 0x24
     ac4:	d2833003 	addle	r3, r3, #3
     ac8:	d7873002 	strle	r3, [r7, r2]
                if (badMushroom_y[i] + GRAVITY_FALL >= LOWEST_Y - 19){
                    badMushroom_y[i] = LOWEST_Y - 19;
     acc:	c2883024 	addgt	r3, r8, #36	; 0x24
     ad0:	c3a010b7 	movgt	r1, #183	; 0xb7
     ad4:	c7871003 	strgt	r1, [r7, r3]
     ad8:	ea000035 	b	bb4 <bad_mushroom_update_location+0x1a8>
                }
            }
        } else if (map_num == 2){
     adc:	e35a0002 	cmp	r10, #2
     ae0:	1a00001a 	bne	b50 <bad_mushroom_update_location+0x144>
            //bouncing between two pipes
            if (badMushroom_x[i] <= pipe_2_L_high_x){
     ae4:	e2883018 	add	r3, r8, #24
     ae8:	e7973003 	ldr	r3, [r7, r3]
     aec:	e59d2014 	ldr	r2, [sp, #20]
     af0:	e1530002 	cmp	r3, r2
                isBadMushroomMovingRight[i] = true;
     af4:	d2892004 	addle	r2, r9, #4
     af8:	d3a01001 	movle	r1, #1
     afc:	d7c61002 	strble	r1, [r6, r2]
     b00:	da00000a 	ble	b30 <bad_mushroom_update_location+0x124>
            } else if (badMushroom_x[i] + 19 >= pipe_2_R_low_x){
     b04:	e2832013 	add	r2, r3, #19
     b08:	e59d101c 	ldr	r1, [sp, #28]
     b0c:	e1520001 	cmp	r2, r1
                isBadMushroomMovingRight[i] = false;
     b10:	a2892004 	addge	r2, r9, #4
     b14:	a3a01000 	movge	r1, #0
     b18:	a7c61002 	strbge	r1, [r6, r2]
     b1c:	aa000007 	bge	b40 <bad_mushroom_update_location+0x134>
            }

            if (isBadMushroomMovingRight[i]){
     b20:	e2892004 	add	r2, r9, #4
     b24:	e7d62002 	ldrb	r2, [r6, r2]
     b28:	e3520000 	cmp	r2, #0
     b2c:	0a000003 	beq	b40 <bad_mushroom_update_location+0x134>
                badMushroom_x[i] += BAD_MUSHROOM_SPEED;
     b30:	e2882018 	add	r2, r8, #24
     b34:	e2833001 	add	r3, r3, #1
     b38:	e7873002 	str	r3, [r7, r2]
     b3c:	ea00001c 	b	bb4 <bad_mushroom_update_location+0x1a8>
            } else{
                badMushroom_x[i] -= BAD_MUSHROOM_SPEED;
     b40:	e2882018 	add	r2, r8, #24
     b44:	e2433001 	sub	r3, r3, #1
     b48:	e7873002 	str	r3, [r7, r2]
     b4c:	ea000018 	b	bb4 <bad_mushroom_update_location+0x1a8>
            }

        } else{
            //bouncing 
            if (badMushroom_x[i] <= pipe_3_high_x){
     b50:	e2883018 	add	r3, r8, #24
     b54:	e7973003 	ldr	r3, [r7, r3]
     b58:	e59d200c 	ldr	r2, [sp, #12]
     b5c:	e1530002 	cmp	r3, r2
                isBadMushroomMovingRight[i] = true;
     b60:	d2892004 	addle	r2, r9, #4
     b64:	d3a01001 	movle	r1, #1
     b68:	d7c61002 	strble	r1, [r6, r2]
     b6c:	da000009 	ble	b98 <bad_mushroom_update_location+0x18c>
            } else if (badMushroom_x[i] + 19 >= 224){
     b70:	e2832013 	add	r2, r3, #19
     b74:	e35200df 	cmp	r2, #223	; 0xdf
                isBadMushroomMovingRight[i] = false;
     b78:	c2892004 	addgt	r2, r9, #4
     b7c:	c3a01000 	movgt	r1, #0
     b80:	c7c61002 	strbgt	r1, [r6, r2]
     b84:	ca000007 	bgt	ba8 <bad_mushroom_update_location+0x19c>
            }

            if (isBadMushroomMovingRight[i]){
     b88:	e2892004 	add	r2, r9, #4
     b8c:	e7d62002 	ldrb	r2, [r6, r2]
     b90:	e3520000 	cmp	r2, #0
     b94:	0a000003 	beq	ba8 <bad_mushroom_update_location+0x19c>
                badMushroom_x[i] += BAD_MUSHROOM_SPEED;
     b98:	e2882018 	add	r2, r8, #24
     b9c:	e2833001 	add	r3, r3, #1
     ba0:	e7873002 	str	r3, [r7, r2]
     ba4:	ea000002 	b	bb4 <bad_mushroom_update_location+0x1a8>
            } else{
                badMushroom_x[i] -= BAD_MUSHROOM_SPEED;
     ba8:	e2882018 	add	r2, r8, #24
     bac:	e2433001 	sub	r3, r3, #1
     bb0:	e7873002 	str	r3, [r7, r2]
            }
        }
        

        //check whether mario dies
        if (isBadMushroom[i] && badMushroom_x[i] <= mario_x + MARIO_MID && badMushroom_x[i] + 19 >= mario_x + MARIO_MID  && badMushroom_y[i] + 19 >= mario_y && mario_y + 25 >= badMushroom_y[i]){
     bb4:	e2883014 	add	r3, r8, #20
     bb8:	e7d63003 	ldrb	r3, [r6, r3]
     bbc:	e3530000 	cmp	r3, #0
     bc0:	0a000029 	beq	c6c <bad_mushroom_update_location+0x260>
     bc4:	e2883018 	add	r3, r8, #24
     bc8:	e797b003 	ldr	r11, [r7, r3]
     bcc:	e59d0004 	ldr	r0, [sp, #4]
     bd0:	eb00099a 	bl	3240 <__aeabi_i2d>
     bd4:	e3a02000 	mov	r2, #0
     bd8:	e3a03000 	mov	r3, #0
     bdc:	e3443029 	movt	r3, #16425	; 0x4029
     be0:	eb0008c9 	bl	2f0c <__adddf3>
     be4:	e1a04000 	mov	r4, r0
     be8:	e1a05001 	mov	r5, r1
     bec:	e1a0000b 	mov	r0, r11
     bf0:	eb000992 	bl	3240 <__aeabi_i2d>
     bf4:	e1a02004 	mov	r2, r4
     bf8:	e1a03005 	mov	r3, r5
     bfc:	eb000b2c 	bl	38b4 <__aeabi_dcmple>
     c00:	e3500000 	cmp	r0, #0
     c04:	0a000018 	beq	c6c <bad_mushroom_update_location+0x260>
     c08:	e28b0013 	add	r0, r11, #19
     c0c:	eb00098b 	bl	3240 <__aeabi_i2d>
     c10:	e1a02000 	mov	r2, r0
     c14:	e1a03001 	mov	r3, r1
     c18:	e1a00004 	mov	r0, r4
     c1c:	e1a01005 	mov	r1, r5
     c20:	eb000b23 	bl	38b4 <__aeabi_dcmple>
     c24:	e3500000 	cmp	r0, #0
     c28:	0a00000f 	beq	c6c <bad_mushroom_update_location+0x260>
     c2c:	e2883024 	add	r3, r8, #36	; 0x24
     c30:	e7973003 	ldr	r3, [r7, r3]
     c34:	e2832013 	add	r2, r3, #19
     c38:	e59d1008 	ldr	r1, [sp, #8]
     c3c:	e1520001 	cmp	r2, r1
     c40:	ba000009 	blt	c6c <bad_mushroom_update_location+0x260>
     c44:	e2812019 	add	r2, r1, #25
     c48:	e1530002 	cmp	r3, r2
     c4c:	ca000006 	bgt	c6c <bad_mushroom_update_location+0x260>
            lives--;
     c50:	e59d2010 	ldr	r2, [sp, #16]
     c54:	e2422001 	sub	r2, r2, #1
     c58:	e58d2010 	str	r2, [sp, #16]
            //reset Mario's position
            mario_x = 10;
            mario_y = LOWEST_Y - 25;
     c5c:	e3a030b1 	mov	r3, #177	; 0xb1
     c60:	e58d3008 	str	r3, [sp, #8]

        //check whether mario dies
        if (isBadMushroom[i] && badMushroom_x[i] <= mario_x + MARIO_MID && badMushroom_x[i] + 19 >= mario_x + MARIO_MID  && badMushroom_y[i] + 19 >= mario_y && mario_y + 25 >= badMushroom_y[i]){
            lives--;
            //reset Mario's position
            mario_x = 10;
     c64:	e3a0100a 	mov	r1, #10
     c68:	e58d1004 	str	r1, [sp, #4]
    return;
}

void bad_mushroom_update_location(){
    //bad mushroom move to left automatically
    for (int i = 0; i < 3; i++)
     c6c:	e2866001 	add	r6, r6, #1
     c70:	e2877004 	add	r7, r7, #4
     c74:	e3560003 	cmp	r6, #3
     c78:	1affff7c 	bne	a70 <bad_mushroom_update_location+0x64>
     c7c:	e3033e00 	movw	r3, #15872	; 0x3e00
     c80:	e3403000 	movt	r3, #0
     c84:	e59d2004 	ldr	r2, [sp, #4]
     c88:	e583200c 	str	r2, [r3, #12]
     c8c:	e59d1008 	ldr	r1, [sp, #8]
     c90:	e5831010 	str	r1, [r3, #16]
     c94:	e59d2010 	ldr	r2, [sp, #16]
     c98:	e5832004 	str	r2, [r3, #4]
     c9c:	ea000012 	b	cec <bad_mushroom_update_location+0x2e0>
            if (isBadMushroom[i] && badMushroom_x[i] + 19 >= 0){
                badMushroom_x[i] -= BAD_MUSHROOM_SPEED;
            }

            //gravitational falling of bad mush room
            if (isBadMushroom[i] && badMushroom_x[i] + 19 * 0.5 <= steps_1_low_x && badMushroom_y[i] + 19 < LOWEST_Y){
     ca0:	e2883018 	add	r3, r8, #24
     ca4:	e7970003 	ldr	r0, [r7, r3]
     ca8:	eb000964 	bl	3240 <__aeabi_i2d>
     cac:	e3a02000 	mov	r2, #0
     cb0:	e3a03000 	mov	r3, #0
     cb4:	e3443023 	movt	r3, #16419	; 0x4023
     cb8:	eb000893 	bl	2f0c <__adddf3>
     cbc:	e1a04000 	mov	r4, r0
     cc0:	e1a05001 	mov	r5, r1
     cc4:	e59d0018 	ldr	r0, [sp, #24]
     cc8:	eb00095c 	bl	3240 <__aeabi_i2d>
     ccc:	e1a02000 	mov	r2, r0
     cd0:	e1a03001 	mov	r3, r1
     cd4:	e1a00004 	mov	r0, r4
     cd8:	e1a01005 	mov	r1, r5
     cdc:	eb000af4 	bl	38b4 <__aeabi_dcmple>
     ce0:	e3500000 	cmp	r0, #0
     ce4:	1affff6e 	bne	aa4 <bad_mushroom_update_location+0x98>
     ce8:	eaffffb1 	b	bb4 <bad_mushroom_update_location+0x1a8>
            //reset Mario's position
            mario_x = 10;
            mario_y = LOWEST_Y - 25;
        }
    }
}
     cec:	e28dd024 	add	sp, sp, #36	; 0x24
     cf0:	e8bd8ff0 	pop	{r4, r5, r6, r7, r8, r9, r10, r11, pc}

00000cf4 <beat_mushroom>:

void beat_mushroom(){
     cf4:	e92d05f0 	push	{r4, r5, r6, r7, r8, r10}
    for (int i = 0; i < 3; i++)
    {
        if (isBadMushroom[i] && mario_x + 25 >= badMushroom_x[i] && mario_x <= badMushroom_x[i] + 19 && mario_y + 25 <= badMushroom_y[i]){
     cf8:	e3032e00 	movw	r2, #15872	; 0x3e00
     cfc:	e3402000 	movt	r2, #0
     d00:	e592c00c 	ldr	r12, [r2, #12]
     d04:	e28c4019 	add	r4, r12, #25
     d08:	e5923010 	ldr	r3, [r2, #16]
     d0c:	e2836019 	add	r6, r3, #25
            if (mario_y + 25 + GRAVITY_FALL >= badMushroom_y[i]){
     d10:	e283701c 	add	r7, r3, #28
     d14:	e30e3134 	movw	r3, #57652	; 0xe134
     d18:	e340301c 	movt	r3, #28
     d1c:	e5935000 	ldr	r5, [r3]
     d20:	e2822014 	add	r2, r2, #20
     d24:	e3a03000 	mov	r3, #0
}

void beat_mushroom(){
    for (int i = 0; i < 3; i++)
    {
        if (isBadMushroom[i] && mario_x + 25 >= badMushroom_x[i] && mario_x <= badMushroom_x[i] + 19 && mario_y + 25 <= badMushroom_y[i]){
     d28:	e3030e00 	movw	r0, #15872	; 0x3e00
     d2c:	e3400000 	movt	r0, #0
            if (mario_y + 25 + GRAVITY_FALL >= badMushroom_y[i]){
                isBadMushroom[i] = false;
     d30:	e1a0a003 	mov	r10, r3
                badMushroom_x[i] = OUT_SCREEN;
     d34:	e3e08031 	mvn	r8, #49	; 0x31
}

void beat_mushroom(){
    for (int i = 0; i < 3; i++)
    {
        if (isBadMushroom[i] && mario_x + 25 >= badMushroom_x[i] && mario_x <= badMushroom_x[i] + 19 && mario_y + 25 <= badMushroom_y[i]){
     d38:	e4d21001 	ldrb	r1, [r2], #1
     d3c:	e3510000 	cmp	r1, #0
     d40:	0a000012 	beq	d90 <beat_mushroom+0x9c>
     d44:	e2801018 	add	r1, r0, #24
     d48:	e7931001 	ldr	r1, [r3, r1]
     d4c:	e1540001 	cmp	r4, r1
     d50:	ba00000e 	blt	d90 <beat_mushroom+0x9c>
     d54:	e2811013 	add	r1, r1, #19
     d58:	e15c0001 	cmp	r12, r1
     d5c:	ca00000b 	bgt	d90 <beat_mushroom+0x9c>
     d60:	e2801024 	add	r1, r0, #36	; 0x24
     d64:	e7931001 	ldr	r1, [r3, r1]
     d68:	e1560001 	cmp	r6, r1
     d6c:	ca000007 	bgt	d90 <beat_mushroom+0x9c>
            if (mario_y + 25 + GRAVITY_FALL >= badMushroom_y[i]){
     d70:	e1510007 	cmp	r1, r7
     d74:	ca000005 	bgt	d90 <beat_mushroom+0x9c>
                isBadMushroom[i] = false;
     d78:	e542a001 	strb	r10, [r2, #-1]
                badMushroom_x[i] = OUT_SCREEN;
     d7c:	e2801018 	add	r1, r0, #24
     d80:	e7838001 	str	r8, [r3, r1]
                badMushroom_y[i] = OUT_SCREEN;
     d84:	e2801024 	add	r1, r0, #36	; 0x24
     d88:	e7838001 	str	r8, [r3, r1]
                score++;
     d8c:	e2855001 	add	r5, r5, #1
     d90:	e2833004 	add	r3, r3, #4
        }
    }
}

void beat_mushroom(){
    for (int i = 0; i < 3; i++)
     d94:	e353000c 	cmp	r3, #12
     d98:	1affffe6 	bne	d38 <beat_mushroom+0x44>
     d9c:	e30e3134 	movw	r3, #57652	; 0xe134
     da0:	e340301c 	movt	r3, #28
     da4:	e5835000 	str	r5, [r3]
                score++;
            }
        }
    }
    return;
}
     da8:	e8bd05f0 	pop	{r4, r5, r6, r7, r8, r10}
     dac:	e12fff1e 	bx	lr

00000db0 <mario_update_location>:
        isGameOver = true;
    }
}


void mario_update_location(){
     db0:	e92d4ff0 	push	{r4, r5, r6, r7, r8, r9, r10, r11, lr}
     db4:	e24dd00c 	sub	sp, sp, #12
    if (map_num == 1){       
     db8:	e3033e00 	movw	r3, #15872	; 0x3e00
     dbc:	e3403000 	movt	r3, #0
     dc0:	e5933000 	ldr	r3, [r3]
     dc4:	e3530001 	cmp	r3, #1
     dc8:	1a000159 	bne	1334 <mario_update_location+0x584>
        //control mario depends on different flags
        if (mario_move_forward && (mario_x + 25 <= pipe_1_low_x || mario_x > pipe_1_low_x || mario_y + 25 <= pipe_1_y)){
     dcc:	e30e3134 	movw	r3, #57652	; 0xe134
     dd0:	e340301c 	movt	r3, #28
     dd4:	e5d33013 	ldrb	r3, [r3, #19]
     dd8:	e3530000 	cmp	r3, #0
     ddc:	0a000015 	beq	e38 <mario_update_location+0x88>
     de0:	e3033e00 	movw	r3, #15872	; 0x3e00
     de4:	e3403000 	movt	r3, #0
     de8:	e593200c 	ldr	r2, [r3, #12]
     dec:	e593307c 	ldr	r3, [r3, #124]	; 0x7c
     df0:	e2821019 	add	r1, r2, #25
     df4:	e1510003 	cmp	r1, r3
     df8:	da000008 	ble	e20 <mario_update_location+0x70>
     dfc:	e1520003 	cmp	r2, r3
     e00:	ca000006 	bgt	e20 <mario_update_location+0x70>
     e04:	e3033e00 	movw	r3, #15872	; 0x3e00
     e08:	e3403000 	movt	r3, #0
     e0c:	e5931010 	ldr	r1, [r3, #16]
     e10:	e2811019 	add	r1, r1, #25
     e14:	e5933080 	ldr	r3, [r3, #128]	; 0x80
     e18:	e1510003 	cmp	r1, r3
     e1c:	ca000005 	bgt	e38 <mario_update_location+0x88>
            mario_x += MARIO_RUN_SPEED;
     e20:	e3033e00 	movw	r3, #15872	; 0x3e00
     e24:	e3403000 	movt	r3, #0
     e28:	e2822003 	add	r2, r2, #3
     e2c:	e583200c 	str	r2, [r3, #12]
            is_mario_moving_forward = true;
     e30:	e3a02001 	mov	r2, #1
     e34:	e5c32084 	strb	r2, [r3, #132]	; 0x84
        } 
        if (mario_move_backward && (mario_x >= pipe_1_high_x || mario_x < pipe_1_low_x || mario_y + 25 <= pipe_1_y)){
     e38:	e30e3134 	movw	r3, #57652	; 0xe134
     e3c:	e340301c 	movt	r3, #28
     e40:	e5d33012 	ldrb	r3, [r3, #18]
     e44:	e3530000 	cmp	r3, #0
     e48:	0a000017 	beq	eac <mario_update_location+0xfc>
     e4c:	e3033e00 	movw	r3, #15872	; 0x3e00
     e50:	e3403000 	movt	r3, #0
     e54:	e593200c 	ldr	r2, [r3, #12]
     e58:	e5933088 	ldr	r3, [r3, #136]	; 0x88
     e5c:	e1520003 	cmp	r2, r3
     e60:	aa00000b 	bge	e94 <mario_update_location+0xe4>
     e64:	e3033e00 	movw	r3, #15872	; 0x3e00
     e68:	e3403000 	movt	r3, #0
     e6c:	e593307c 	ldr	r3, [r3, #124]	; 0x7c
     e70:	e1520003 	cmp	r2, r3
     e74:	ba000006 	blt	e94 <mario_update_location+0xe4>
     e78:	e3033e00 	movw	r3, #15872	; 0x3e00
     e7c:	e3403000 	movt	r3, #0
     e80:	e5931010 	ldr	r1, [r3, #16]
     e84:	e2811019 	add	r1, r1, #25
     e88:	e5933080 	ldr	r3, [r3, #128]	; 0x80
     e8c:	e1510003 	cmp	r1, r3
     e90:	ca000005 	bgt	eac <mario_update_location+0xfc>
            mario_x -= MARIO_RUN_SPEED;
     e94:	e3033e00 	movw	r3, #15872	; 0x3e00
     e98:	e3403000 	movt	r3, #0
     e9c:	e2422003 	sub	r2, r2, #3
     ea0:	e583200c 	str	r2, [r3, #12]
            is_mario_moving_forward = false;
     ea4:	e3a02000 	mov	r2, #0
     ea8:	e5c32084 	strb	r2, [r3, #132]	; 0x84
        }
        if (mario_jump){
     eac:	e30e3134 	movw	r3, #57652	; 0xe134
     eb0:	e340301c 	movt	r3, #28
     eb4:	e5d33014 	ldrb	r3, [r3, #20]
     eb8:	e3530000 	cmp	r3, #0
     ebc:	0a000089 	beq	10e8 <mario_update_location+0x338>
            //if under steps
            if (steps_1_low_x <= mario_x + MARIO_MID && mario_x + MARIO_MID <= steps_1_high_x && mario_y > steps_1_y){
     ec0:	e3036e00 	movw	r6, #15872	; 0x3e00
     ec4:	e3406000 	movt	r6, #0
     ec8:	e596000c 	ldr	r0, [r6, #12]
     ecc:	eb0008db 	bl	3240 <__aeabi_i2d>
     ed0:	e3a02000 	mov	r2, #0
     ed4:	e3a03000 	mov	r3, #0
     ed8:	e3443029 	movt	r3, #16425	; 0x4029
     edc:	eb00080a 	bl	2f0c <__adddf3>
     ee0:	e1a04000 	mov	r4, r0
     ee4:	e1a05001 	mov	r5, r1
     ee8:	e596006c 	ldr	r0, [r6, #108]	; 0x6c
     eec:	eb0008d3 	bl	3240 <__aeabi_i2d>
     ef0:	e1a02004 	mov	r2, r4
     ef4:	e1a03005 	mov	r3, r5
     ef8:	eb000a6d 	bl	38b4 <__aeabi_dcmple>
     efc:	e3500000 	cmp	r0, #0
     f00:	0a00004f 	beq	1044 <mario_update_location+0x294>
     f04:	e596008c 	ldr	r0, [r6, #140]	; 0x8c
     f08:	eb0008cc 	bl	3240 <__aeabi_i2d>
     f0c:	e1a02000 	mov	r2, r0
     f10:	e1a03001 	mov	r3, r1
     f14:	e1a00004 	mov	r0, r4
     f18:	e1a01005 	mov	r1, r5
     f1c:	eb000a64 	bl	38b4 <__aeabi_dcmple>
     f20:	e3500000 	cmp	r0, #0
     f24:	0a000046 	beq	1044 <mario_update_location+0x294>
     f28:	e5962010 	ldr	r2, [r6, #16]
     f2c:	e5963090 	ldr	r3, [r6, #144]	; 0x90
     f30:	e1520003 	cmp	r2, r3
     f34:	da000042 	ble	1044 <mario_update_location+0x294>
                if (!mario_fall && mario_y > steps_1_y + 25){
     f38:	e30e1134 	movw	r1, #57652	; 0xe134
     f3c:	e340101c 	movt	r1, #28
     f40:	e5d11015 	ldrb	r1, [r1, #21]
     f44:	e3510000 	cmp	r1, #0
     f48:	1a000004 	bne	f60 <mario_update_location+0x1b0>
     f4c:	e2833019 	add	r3, r3, #25
     f50:	e1520003 	cmp	r2, r3
                    mario_y -= MARIO_JUMP_SPEED;
     f54:	c2422002 	subgt	r2, r2, #2
     f58:	c5862010 	strgt	r2, [r6, #16]
     f5c:	ca000056 	bgt	10bc <mario_update_location+0x30c>
                } else{
                    mario_fall = true;
     f60:	e30e3134 	movw	r3, #57652	; 0xe134
     f64:	e340301c 	movt	r3, #28
     f68:	e3a02001 	mov	r2, #1
     f6c:	e5c32015 	strb	r2, [r3, #21]
                    mario_jumped = 0;
     f70:	e3a06000 	mov	r6, #0
     f74:	e5836018 	str	r6, [r3, #24]
        isGameOver = true;
    }
}


void mario_update_location(){
     f78:	e59f8d2c 	ldr	r8, [pc, #3372]	; 1cac <mario_update_location+0xefc>
                    mario_fall = true;
                    mario_jumped = 0;
                    for (int i = 0; i < 3; i++)
                    {
                        if (mario_x + MARIO_MID >= money_x[i] && mario_x + MARIO_MID <= money_x[i] + 16){
                            isMoney[i] = true;
     f7c:	e1a0a003 	mov	r10, r3
     f80:	e1a09002 	mov	r9, r2
                } else{
                    mario_fall = true;
                    mario_jumped = 0;
                    for (int i = 0; i < 3; i++)
                    {
                        if (mario_x + MARIO_MID >= money_x[i] && mario_x + MARIO_MID <= money_x[i] + 16){
     f84:	e5b87004 	ldr	r7, [r8, #4]!
     f88:	e1a00007 	mov	r0, r7
     f8c:	eb0008ab 	bl	3240 <__aeabi_i2d>
     f90:	e1a02000 	mov	r2, r0
     f94:	e1a03001 	mov	r3, r1
     f98:	e1a00004 	mov	r0, r4
     f9c:	e1a01005 	mov	r1, r5
     fa0:	eb000a49 	bl	38cc <__aeabi_dcmpge>
     fa4:	e3500000 	cmp	r0, #0
     fa8:	0a000009 	beq	fd4 <mario_update_location+0x224>
     fac:	e2870010 	add	r0, r7, #16
     fb0:	eb0008a2 	bl	3240 <__aeabi_i2d>
     fb4:	e1a02000 	mov	r2, r0
     fb8:	e1a03001 	mov	r3, r1
     fbc:	e1a00004 	mov	r0, r4
     fc0:	e1a01005 	mov	r1, r5
     fc4:	eb000a3a 	bl	38b4 <__aeabi_dcmple>
     fc8:	e3500000 	cmp	r0, #0
                            isMoney[i] = true;
     fcc:	128a3008 	addne	r3, r10, #8
     fd0:	17c69003 	strbne	r9, [r6, r3]
                if (!mario_fall && mario_y > steps_1_y + 25){
                    mario_y -= MARIO_JUMP_SPEED;
                } else{
                    mario_fall = true;
                    mario_jumped = 0;
                    for (int i = 0; i < 3; i++)
     fd4:	e2866001 	add	r6, r6, #1
     fd8:	e3560003 	cmp	r6, #3
     fdc:	1affffe8 	bne	f84 <mario_update_location+0x1d4>
                    {
                        if (mario_x + MARIO_MID >= money_x[i] && mario_x + MARIO_MID <= money_x[i] + 16){
                            isMoney[i] = true;
                        }
                    }
                    if (mario_x + MARIO_MID >= goodMushroom_x && mario_x + MARIO_MID <= goodMushroom_x + 19){
     fe0:	e3033e00 	movw	r3, #15872	; 0x3e00
     fe4:	e3403000 	movt	r3, #0
     fe8:	e5936048 	ldr	r6, [r3, #72]	; 0x48
     fec:	e1a00006 	mov	r0, r6
     ff0:	eb000892 	bl	3240 <__aeabi_i2d>
     ff4:	e1a02000 	mov	r2, r0
     ff8:	e1a03001 	mov	r3, r1
     ffc:	e1a00004 	mov	r0, r4
    1000:	e1a01005 	mov	r1, r5
    1004:	eb000a30 	bl	38cc <__aeabi_dcmpge>
    1008:	e3500000 	cmp	r0, #0
    100c:	0a00002a 	beq	10bc <mario_update_location+0x30c>
    1010:	e2860013 	add	r0, r6, #19
    1014:	eb000889 	bl	3240 <__aeabi_i2d>
    1018:	e1a02000 	mov	r2, r0
    101c:	e1a03001 	mov	r3, r1
    1020:	e1a00004 	mov	r0, r4
    1024:	e1a01005 	mov	r1, r5
    1028:	eb000a21 	bl	38b4 <__aeabi_dcmple>
    102c:	e3500000 	cmp	r0, #0
                        isGoodMushroom = true;
    1030:	130e3134 	movwne	r3, #57652	; 0xe134
    1034:	1340301c 	movtne	r3, #28
    1038:	13a02001 	movne	r2, #1
    103c:	15c3200b 	strbne	r2, [r3, #11]
    1040:	ea00001d 	b	10bc <mario_update_location+0x30c>
                    }
                    
                }
            }else if (!mario_fall && mario_jumped < MARIO_JUMP_HIGHT && mario_y <= 27){
    1044:	e30e3134 	movw	r3, #57652	; 0xe134
    1048:	e340301c 	movt	r3, #28
    104c:	e5d33015 	ldrb	r3, [r3, #21]
    1050:	e3530000 	cmp	r3, #0
    1054:	1a000012 	bne	10a4 <mario_update_location+0x2f4>
    1058:	e30e3134 	movw	r3, #57652	; 0xe134
    105c:	e340301c 	movt	r3, #28
    1060:	e5933018 	ldr	r3, [r3, #24]
    1064:	e3530054 	cmp	r3, #84	; 0x54
    1068:	ca00000d 	bgt	10a4 <mario_update_location+0x2f4>
    106c:	e3032e00 	movw	r2, #15872	; 0x3e00
    1070:	e3402000 	movt	r2, #0
    1074:	e5922010 	ldr	r2, [r2, #16]
    1078:	e352001b 	cmp	r2, #27
    107c:	ca000008 	bgt	10a4 <mario_update_location+0x2f4>
                mario_y -= MARIO_JUMP_SPEED;
    1080:	e3031e00 	movw	r1, #15872	; 0x3e00
    1084:	e3401000 	movt	r1, #0
    1088:	e2422002 	sub	r2, r2, #2
    108c:	e5812010 	str	r2, [r1, #16]
                mario_jumped += MARIO_JUMP_SPEED;
    1090:	e30e2134 	movw	r2, #57652	; 0xe134
    1094:	e340201c 	movt	r2, #28
    1098:	e2833002 	add	r3, r3, #2
    109c:	e5823018 	str	r3, [r2, #24]
    10a0:	ea000005 	b	10bc <mario_update_location+0x30c>
            } else{
                mario_fall = true;
    10a4:	e30e3134 	movw	r3, #57652	; 0xe134
    10a8:	e340301c 	movt	r3, #28
    10ac:	e3a02001 	mov	r2, #1
    10b0:	e5c32015 	strb	r2, [r3, #21]
                mario_jumped = 0;
    10b4:	e3a02000 	mov	r2, #0
    10b8:	e5832018 	str	r2, [r3, #24]
            }

            if (mario_fall){
    10bc:	e30e3134 	movw	r3, #57652	; 0xe134
    10c0:	e340301c 	movt	r3, #28
    10c4:	e5d33015 	ldrb	r3, [r3, #21]
    10c8:	e3530000 	cmp	r3, #0
    10cc:	0a00006c 	beq	1284 <mario_update_location+0x4d4>
                beat_mushroom();
    10d0:	ebffff07 	bl	cf4 <beat_mushroom>
                mario_y += GRAVITY_FALL;
    10d4:	e3033e00 	movw	r3, #15872	; 0x3e00
    10d8:	e3403000 	movt	r3, #0
    10dc:	e5932010 	ldr	r2, [r3, #16]
    10e0:	e2822003 	add	r2, r2, #3
    10e4:	e5832010 	str	r2, [r3, #16]
            }
        }
        //if not landing, cannot jump again
        //if on steps
        if (mario_fall && steps_1_low_x < mario_x + 20 && mario_x + 5 < steps_1_high_x && mario_y + 25 <= steps_1_y + 20){
    10e8:	e30e3134 	movw	r3, #57652	; 0xe134
    10ec:	e340301c 	movt	r3, #28
    10f0:	e5d33015 	ldrb	r3, [r3, #21]
    10f4:	e3530000 	cmp	r3, #0
    10f8:	0a000061 	beq	1284 <mario_update_location+0x4d4>
    10fc:	e3033e00 	movw	r3, #15872	; 0x3e00
    1100:	e3403000 	movt	r3, #0
    1104:	e593200c 	ldr	r2, [r3, #12]
    1108:	e2821014 	add	r1, r2, #20
    110c:	e593306c 	ldr	r3, [r3, #108]	; 0x6c
    1110:	e1510003 	cmp	r1, r3
    1114:	da000024 	ble	11ac <mario_update_location+0x3fc>
    1118:	e2820005 	add	r0, r2, #5
    111c:	e3033e00 	movw	r3, #15872	; 0x3e00
    1120:	e3403000 	movt	r3, #0
    1124:	e593308c 	ldr	r3, [r3, #140]	; 0x8c
    1128:	e1500003 	cmp	r0, r3
    112c:	aa00001e 	bge	11ac <mario_update_location+0x3fc>
    1130:	e3033e00 	movw	r3, #15872	; 0x3e00
    1134:	e3403000 	movt	r3, #0
    1138:	e5930010 	ldr	r0, [r3, #16]
    113c:	e2800019 	add	r0, r0, #25
    1140:	e5933090 	ldr	r3, [r3, #144]	; 0x90
    1144:	e283c014 	add	r12, r3, #20
    1148:	e150000c 	cmp	r0, r12
    114c:	ca000016 	bgt	11ac <mario_update_location+0x3fc>
            if (mario_y + 25 >= steps_1_y){
    1150:	e1500003 	cmp	r0, r3
    1154:	ba000008 	blt	117c <mario_update_location+0x3cc>
                mario_y = steps_1_y - 25;
    1158:	e3032e00 	movw	r2, #15872	; 0x3e00
    115c:	e3402000 	movt	r2, #0
    1160:	e2431019 	sub	r1, r3, #25
    1164:	e5821010 	str	r1, [r2, #16]
                mario_jump = false;
    1168:	e30e2134 	movw	r2, #57652	; 0xe134
    116c:	e340201c 	movt	r2, #28
    1170:	e3a01000 	mov	r1, #0
    1174:	e5c21014 	strb	r1, [r2, #20]
                mario_fall = false;
    1178:	e5c21015 	strb	r1, [r2, #21]
            }
            if (mario_y != steps_1_y - 25){
    117c:	e2433019 	sub	r3, r3, #25
    1180:	e3032e00 	movw	r2, #15872	; 0x3e00
    1184:	e3402000 	movt	r2, #0
    1188:	e5922010 	ldr	r2, [r2, #16]
    118c:	e1530002 	cmp	r3, r2
    1190:	0a00003b 	beq	1284 <mario_update_location+0x4d4>
                mario_jump = true;
    1194:	e30e3134 	movw	r3, #57652	; 0xe134
    1198:	e340301c 	movt	r3, #28
    119c:	e3a02001 	mov	r2, #1
    11a0:	e5c32014 	strb	r2, [r3, #20]
                mario_fall = true;
    11a4:	e5c32015 	strb	r2, [r3, #21]
    11a8:	ea000035 	b	1284 <mario_update_location+0x4d4>
            }
        }//if on the pipe 
        else if (mario_fall && pipe_1_low_x < mario_x + 20 && mario_x + 5 < pipe_1_high_x){
    11ac:	e3033e00 	movw	r3, #15872	; 0x3e00
    11b0:	e3403000 	movt	r3, #0
    11b4:	e593307c 	ldr	r3, [r3, #124]	; 0x7c
    11b8:	e1510003 	cmp	r1, r3
    11bc:	da000021 	ble	1248 <mario_update_location+0x498>
    11c0:	e2822005 	add	r2, r2, #5
    11c4:	e3033e00 	movw	r3, #15872	; 0x3e00
    11c8:	e3403000 	movt	r3, #0
    11cc:	e5933088 	ldr	r3, [r3, #136]	; 0x88
    11d0:	e1520003 	cmp	r2, r3
    11d4:	aa00001b 	bge	1248 <mario_update_location+0x498>
            if (mario_y + 25 >= pipe_1_y){
    11d8:	e3033e00 	movw	r3, #15872	; 0x3e00
    11dc:	e3403000 	movt	r3, #0
    11e0:	e5932080 	ldr	r2, [r3, #128]	; 0x80
    11e4:	e5933010 	ldr	r3, [r3, #16]
    11e8:	e2833019 	add	r3, r3, #25
    11ec:	e1530002 	cmp	r3, r2
    11f0:	ba000008 	blt	1218 <mario_update_location+0x468>
                mario_y = pipe_1_y - 25;
    11f4:	e3033e00 	movw	r3, #15872	; 0x3e00
    11f8:	e3403000 	movt	r3, #0
    11fc:	e2421019 	sub	r1, r2, #25
    1200:	e5831010 	str	r1, [r3, #16]
                mario_jump = false;
    1204:	e30e3134 	movw	r3, #57652	; 0xe134
    1208:	e340301c 	movt	r3, #28
    120c:	e3a01000 	mov	r1, #0
    1210:	e5c31014 	strb	r1, [r3, #20]
                mario_fall = false;
    1214:	e5c31015 	strb	r1, [r3, #21]
            }
            if (mario_y != pipe_1_y - 25){
    1218:	e2422019 	sub	r2, r2, #25
    121c:	e3033e00 	movw	r3, #15872	; 0x3e00
    1220:	e3403000 	movt	r3, #0
    1224:	e5933010 	ldr	r3, [r3, #16]
    1228:	e1520003 	cmp	r2, r3
    122c:	0a000014 	beq	1284 <mario_update_location+0x4d4>
                mario_jump = true;
    1230:	e30e3134 	movw	r3, #57652	; 0xe134
    1234:	e340301c 	movt	r3, #28
    1238:	e3a02001 	mov	r2, #1
    123c:	e5c32014 	strb	r2, [r3, #20]
                mario_fall = true;
    1240:	e5c32015 	strb	r2, [r3, #21]
    1244:	ea00000e 	b	1284 <mario_update_location+0x4d4>
            }
        } else if (mario_fall){
            if (mario_y + 25 >= LOWEST_Y){
    1248:	e3033e00 	movw	r3, #15872	; 0x3e00
    124c:	e3403000 	movt	r3, #0
    1250:	e5933010 	ldr	r3, [r3, #16]
    1254:	e2833019 	add	r3, r3, #25
    1258:	e35300c9 	cmp	r3, #201	; 0xc9
    125c:	da000008 	ble	1284 <mario_update_location+0x4d4>
                mario_y = LOWEST_Y - 25;
    1260:	e3033e00 	movw	r3, #15872	; 0x3e00
    1264:	e3403000 	movt	r3, #0
    1268:	e3a020b1 	mov	r2, #177	; 0xb1
    126c:	e5832010 	str	r2, [r3, #16]
                mario_jump = false;
    1270:	e30e3134 	movw	r3, #57652	; 0xe134
    1274:	e340301c 	movt	r3, #28
    1278:	e3a02000 	mov	r2, #0
    127c:	e5c32014 	strb	r2, [r3, #20]
                mario_fall = false;
    1280:	e5c32015 	strb	r2, [r3, #21]
            }
        }
        mario_move_backward = false;
    1284:	e30e3134 	movw	r3, #57652	; 0xe134
    1288:	e340301c 	movt	r3, #28
    128c:	e3a02000 	mov	r2, #0
    1290:	e5c32012 	strb	r2, [r3, #18]
        mario_move_forward = false;
    1294:	e5c32013 	strb	r2, [r3, #19]

        //gravitational falling of Mario
        if (!mario_jump && (mario_x + 20 < steps_1_low_x || mario_x + 5 > steps_1_high_x) && (mario_x + 20 < pipe_1_low_x || mario_x + 5 > pipe_1_high_x) && mario_y + 25 < LOWEST_Y){
    1298:	e5d33014 	ldrb	r3, [r3, #20]
    129c:	e1530002 	cmp	r3, r2
    12a0:	1a0002b0 	bne	1d68 <mario_update_location+0xfb8>
    12a4:	e3033e00 	movw	r3, #15872	; 0x3e00
    12a8:	e3403000 	movt	r3, #0
    12ac:	e593200c 	ldr	r2, [r3, #12]
    12b0:	e2821014 	add	r1, r2, #20
    12b4:	e593306c 	ldr	r3, [r3, #108]	; 0x6c
    12b8:	e1510003 	cmp	r1, r3
    12bc:	ba000005 	blt	12d8 <mario_update_location+0x528>
    12c0:	e2820005 	add	r0, r2, #5
    12c4:	e3033e00 	movw	r3, #15872	; 0x3e00
    12c8:	e3403000 	movt	r3, #0
    12cc:	e593308c 	ldr	r3, [r3, #140]	; 0x8c
    12d0:	e1500003 	cmp	r0, r3
    12d4:	da0002a3 	ble	1d68 <mario_update_location+0xfb8>
    12d8:	e3033e00 	movw	r3, #15872	; 0x3e00
    12dc:	e3403000 	movt	r3, #0
    12e0:	e593307c 	ldr	r3, [r3, #124]	; 0x7c
    12e4:	e1510003 	cmp	r1, r3
    12e8:	ba000005 	blt	1304 <mario_update_location+0x554>
    12ec:	e2822005 	add	r2, r2, #5
    12f0:	e3033e00 	movw	r3, #15872	; 0x3e00
    12f4:	e3403000 	movt	r3, #0
    12f8:	e5933088 	ldr	r3, [r3, #136]	; 0x88
    12fc:	e1520003 	cmp	r2, r3
    1300:	da000298 	ble	1d68 <mario_update_location+0xfb8>
    1304:	e3033e00 	movw	r3, #15872	; 0x3e00
    1308:	e3403000 	movt	r3, #0
    130c:	e5933010 	ldr	r3, [r3, #16]
    1310:	e2833019 	add	r3, r3, #25
    1314:	e35300c9 	cmp	r3, #201	; 0xc9
    1318:	ca000292 	bgt	1d68 <mario_update_location+0xfb8>
            mario_fall = true;
    131c:	e30e3134 	movw	r3, #57652	; 0xe134
    1320:	e340301c 	movt	r3, #28
    1324:	e3a02001 	mov	r2, #1
    1328:	e5c32015 	strb	r2, [r3, #21]
            mario_jump = true;
    132c:	e5c32014 	strb	r2, [r3, #20]
    1330:	ea00028c 	b	1d68 <mario_update_location+0xfb8>
        } 
    } else if (map_num == 2){
    1334:	e3530002 	cmp	r3, #2
    1338:	1a0001d6 	bne	1a98 <mario_update_location+0xce8>
        //control mario depends on different flags
        if (mario_move_forward && (mario_x + 25 <= pipe_2_L_low_x || mario_x > pipe_2_L_low_x || mario_y + 25 <= pipe_2_L_y)
    133c:	e30e3134 	movw	r3, #57652	; 0xe134
    1340:	e340301c 	movt	r3, #28
    1344:	e5d33013 	ldrb	r3, [r3, #19]
    1348:	e3530000 	cmp	r3, #0
    134c:	0a000023 	beq	13e0 <mario_update_location+0x630>
    1350:	e3033e00 	movw	r3, #15872	; 0x3e00
    1354:	e3403000 	movt	r3, #0
    1358:	e593200c 	ldr	r2, [r3, #12]
    135c:	e2821019 	add	r1, r2, #25
    1360:	e5933094 	ldr	r3, [r3, #148]	; 0x94
    1364:	e1510003 	cmp	r1, r3
    1368:	da000008 	ble	1390 <mario_update_location+0x5e0>
    136c:	e1520003 	cmp	r2, r3
    1370:	ca000006 	bgt	1390 <mario_update_location+0x5e0>
    1374:	e3033e00 	movw	r3, #15872	; 0x3e00
    1378:	e3403000 	movt	r3, #0
    137c:	e5930010 	ldr	r0, [r3, #16]
    1380:	e2800019 	add	r0, r0, #25
    1384:	e5933098 	ldr	r3, [r3, #152]	; 0x98
    1388:	e1500003 	cmp	r0, r3
    138c:	ca000013 	bgt	13e0 <mario_update_location+0x630>
                               && (mario_x + 25 <= pipe_2_R_low_x || mario_x > pipe_2_R_low_x || mario_y + 25 <= pipe_2_R_y)){
    1390:	e3033e00 	movw	r3, #15872	; 0x3e00
    1394:	e3403000 	movt	r3, #0
    1398:	e5933074 	ldr	r3, [r3, #116]	; 0x74
    139c:	e1510003 	cmp	r1, r3
    13a0:	da000008 	ble	13c8 <mario_update_location+0x618>
    13a4:	e1520003 	cmp	r2, r3
    13a8:	ca000006 	bgt	13c8 <mario_update_location+0x618>
    13ac:	e3033e00 	movw	r3, #15872	; 0x3e00
    13b0:	e3403000 	movt	r3, #0
    13b4:	e5931010 	ldr	r1, [r3, #16]
    13b8:	e2811019 	add	r1, r1, #25
    13bc:	e593309c 	ldr	r3, [r3, #156]	; 0x9c
    13c0:	e1510003 	cmp	r1, r3
    13c4:	ca000005 	bgt	13e0 <mario_update_location+0x630>
            mario_x += MARIO_RUN_SPEED;
    13c8:	e3033e00 	movw	r3, #15872	; 0x3e00
    13cc:	e3403000 	movt	r3, #0
    13d0:	e2822003 	add	r2, r2, #3
    13d4:	e583200c 	str	r2, [r3, #12]
            is_mario_moving_forward = true;
    13d8:	e3a02001 	mov	r2, #1
    13dc:	e5c32084 	strb	r2, [r3, #132]	; 0x84
        } 
        if (mario_move_backward && (mario_x >= pipe_2_L_high_x || mario_x < pipe_2_L_high_x || mario_y + 25 <= pipe_2_L_y)
    13e0:	e30e3134 	movw	r3, #57652	; 0xe134
    13e4:	e340301c 	movt	r3, #28
    13e8:	e5d33012 	ldrb	r3, [r3, #18]
    13ec:	e3530000 	cmp	r3, #0
    13f0:	0a000006 	beq	1410 <mario_update_location+0x660>
                                && (mario_x >= pipe_2_R_high_x || mario_x < pipe_2_R_high_x || mario_y + 25 <= pipe_2_R_y)){
            mario_x -= MARIO_RUN_SPEED;
    13f4:	e3033e00 	movw	r3, #15872	; 0x3e00
    13f8:	e3403000 	movt	r3, #0
    13fc:	e593200c 	ldr	r2, [r3, #12]
    1400:	e2422003 	sub	r2, r2, #3
    1404:	e583200c 	str	r2, [r3, #12]
            is_mario_moving_forward = false;
    1408:	e3a02000 	mov	r2, #0
    140c:	e5c32084 	strb	r2, [r3, #132]	; 0x84
        }
        if (mario_jump){
    1410:	e30e3134 	movw	r3, #57652	; 0xe134
    1414:	e340301c 	movt	r3, #28
    1418:	e5d33014 	ldrb	r3, [r3, #20]
    141c:	e3530000 	cmp	r3, #0
    1420:	0a0000a2 	beq	16b0 <mario_update_location+0x900>
            //if under left steps
            if (steps_2_L_low_x <= mario_x + MARIO_MID && mario_x + MARIO_MID <= steps_2_L_high_x && mario_y > steps_2_L_y){
    1424:	e3036e00 	movw	r6, #15872	; 0x3e00
    1428:	e3406000 	movt	r6, #0
    142c:	e596000c 	ldr	r0, [r6, #12]
    1430:	eb000782 	bl	3240 <__aeabi_i2d>
    1434:	e3a02000 	mov	r2, #0
    1438:	e3a03000 	mov	r3, #0
    143c:	e3443029 	movt	r3, #16425	; 0x4029
    1440:	eb0006b1 	bl	2f0c <__adddf3>
    1444:	e1a04000 	mov	r4, r0
    1448:	e1a05001 	mov	r5, r1
    144c:	e5960064 	ldr	r0, [r6, #100]	; 0x64
    1450:	eb00077a 	bl	3240 <__aeabi_i2d>
    1454:	e1a02004 	mov	r2, r4
    1458:	e1a03005 	mov	r3, r5
    145c:	eb000914 	bl	38b4 <__aeabi_dcmple>
    1460:	e3500000 	cmp	r0, #0
    1464:	0a00001d 	beq	14e0 <mario_update_location+0x730>
    1468:	e5960068 	ldr	r0, [r6, #104]	; 0x68
    146c:	eb000773 	bl	3240 <__aeabi_i2d>
    1470:	e1a02000 	mov	r2, r0
    1474:	e1a03001 	mov	r3, r1
    1478:	e1a00004 	mov	r0, r4
    147c:	e1a01005 	mov	r1, r5
    1480:	eb00090b 	bl	38b4 <__aeabi_dcmple>
    1484:	e3500000 	cmp	r0, #0
    1488:	0a000014 	beq	14e0 <mario_update_location+0x730>
    148c:	e5962010 	ldr	r2, [r6, #16]
    1490:	e59630a0 	ldr	r3, [r6, #160]	; 0xa0
    1494:	e1520003 	cmp	r2, r3
    1498:	da000010 	ble	14e0 <mario_update_location+0x730>
                if (!mario_fall && mario_y > steps_2_L_y + 25){
    149c:	e30e1134 	movw	r1, #57652	; 0xe134
    14a0:	e340101c 	movt	r1, #28
    14a4:	e5d11015 	ldrb	r1, [r1, #21]
    14a8:	e3510000 	cmp	r1, #0
    14ac:	1a000004 	bne	14c4 <mario_update_location+0x714>
    14b0:	e2833019 	add	r3, r3, #25
    14b4:	e1520003 	cmp	r2, r3
                    mario_y -= MARIO_JUMP_SPEED;
    14b8:	c2422002 	subgt	r2, r2, #2
    14bc:	c5862010 	strgt	r2, [r6, #16]
    14c0:	ca00006e 	bgt	1680 <mario_update_location+0x8d0>
                } else{
                    mario_fall = true;
    14c4:	e30e3134 	movw	r3, #57652	; 0xe134
    14c8:	e340301c 	movt	r3, #28
    14cc:	e3a02001 	mov	r2, #1
    14d0:	e5c32015 	strb	r2, [r3, #21]
                    mario_jumped = 0;
    14d4:	e3a02000 	mov	r2, #0
    14d8:	e5832018 	str	r2, [r3, #24]
    14dc:	ea000067 	b	1680 <mario_update_location+0x8d0>
                }
            } else if (steps_2_R_low_x <= mario_x + MARIO_MID && mario_x + MARIO_MID <= steps_2_R_high_x && mario_y > steps_2_R_y){ //if under right step
    14e0:	e3033e00 	movw	r3, #15872	; 0x3e00
    14e4:	e3403000 	movt	r3, #0
    14e8:	e5930060 	ldr	r0, [r3, #96]	; 0x60
    14ec:	eb000753 	bl	3240 <__aeabi_i2d>
    14f0:	e1a02000 	mov	r2, r0
    14f4:	e1a03001 	mov	r3, r1
    14f8:	e1a00004 	mov	r0, r4
    14fc:	e1a01005 	mov	r1, r5
    1500:	eb0008f1 	bl	38cc <__aeabi_dcmpge>
    1504:	e3500000 	cmp	r0, #0
    1508:	0a00003e 	beq	1608 <mario_update_location+0x858>
    150c:	e3033e00 	movw	r3, #15872	; 0x3e00
    1510:	e3403000 	movt	r3, #0
    1514:	e59300a4 	ldr	r0, [r3, #164]	; 0xa4
    1518:	eb000748 	bl	3240 <__aeabi_i2d>
    151c:	e1a02000 	mov	r2, r0
    1520:	e1a03001 	mov	r3, r1
    1524:	e1a00004 	mov	r0, r4
    1528:	e1a01005 	mov	r1, r5
    152c:	eb0008e0 	bl	38b4 <__aeabi_dcmple>
    1530:	e3500000 	cmp	r0, #0
    1534:	0a000033 	beq	1608 <mario_update_location+0x858>
    1538:	e3033e00 	movw	r3, #15872	; 0x3e00
    153c:	e3403000 	movt	r3, #0
    1540:	e5932010 	ldr	r2, [r3, #16]
    1544:	e59330a8 	ldr	r3, [r3, #168]	; 0xa8
    1548:	e1520003 	cmp	r2, r3
    154c:	da00002d 	ble	1608 <mario_update_location+0x858>
                if (!mario_fall && mario_y > steps_2_R_y + 25){
    1550:	e30e1134 	movw	r1, #57652	; 0xe134
    1554:	e340101c 	movt	r1, #28
    1558:	e5d11015 	ldrb	r1, [r1, #21]
    155c:	e3510000 	cmp	r1, #0
    1560:	1a000007 	bne	1584 <mario_update_location+0x7d4>
    1564:	e2833019 	add	r3, r3, #25
    1568:	e1520003 	cmp	r2, r3
    156c:	da000004 	ble	1584 <mario_update_location+0x7d4>
                    mario_y -= MARIO_JUMP_SPEED;
    1570:	e3033e00 	movw	r3, #15872	; 0x3e00
    1574:	e3403000 	movt	r3, #0
    1578:	e2422002 	sub	r2, r2, #2
    157c:	e5832010 	str	r2, [r3, #16]
    1580:	ea00003e 	b	1680 <mario_update_location+0x8d0>
                } else{
                    mario_fall = true;
    1584:	e30e3134 	movw	r3, #57652	; 0xe134
    1588:	e340301c 	movt	r3, #28
    158c:	e3a02001 	mov	r2, #1
    1590:	e5c32015 	strb	r2, [r3, #21]
                    mario_jumped = 0;
    1594:	e3a06000 	mov	r6, #0
    1598:	e5836018 	str	r6, [r3, #24]
        isGameOver = true;
    }
}


void mario_update_location(){
    159c:	e59f8708 	ldr	r8, [pc, #1800]	; 1cac <mario_update_location+0xefc>
                    mario_fall = true;
                    mario_jumped = 0;
                    for (int i = 0; i < 3; i++)
                    {
                        if (mario_x + MARIO_MID >= money_x[i] && mario_x + MARIO_MID <= money_x[i] + 16){
                            isMoney[i] = true;
    15a0:	e1a0a003 	mov	r10, r3
    15a4:	e1a09002 	mov	r9, r2
                } else{
                    mario_fall = true;
                    mario_jumped = 0;
                    for (int i = 0; i < 3; i++)
                    {
                        if (mario_x + MARIO_MID >= money_x[i] && mario_x + MARIO_MID <= money_x[i] + 16){
    15a8:	e5b87004 	ldr	r7, [r8, #4]!
    15ac:	e1a00007 	mov	r0, r7
    15b0:	eb000722 	bl	3240 <__aeabi_i2d>
    15b4:	e1a02000 	mov	r2, r0
    15b8:	e1a03001 	mov	r3, r1
    15bc:	e1a00004 	mov	r0, r4
    15c0:	e1a01005 	mov	r1, r5
    15c4:	eb0008c0 	bl	38cc <__aeabi_dcmpge>
    15c8:	e3500000 	cmp	r0, #0
    15cc:	0a000009 	beq	15f8 <mario_update_location+0x848>
    15d0:	e2870010 	add	r0, r7, #16
    15d4:	eb000719 	bl	3240 <__aeabi_i2d>
    15d8:	e1a02000 	mov	r2, r0
    15dc:	e1a03001 	mov	r3, r1
    15e0:	e1a00004 	mov	r0, r4
    15e4:	e1a01005 	mov	r1, r5
    15e8:	eb0008b1 	bl	38b4 <__aeabi_dcmple>
    15ec:	e3500000 	cmp	r0, #0
                            isMoney[i] = true;
    15f0:	128a3008 	addne	r3, r10, #8
    15f4:	17c69003 	strbne	r9, [r6, r3]
                if (!mario_fall && mario_y > steps_2_R_y + 25){
                    mario_y -= MARIO_JUMP_SPEED;
                } else{
                    mario_fall = true;
                    mario_jumped = 0;
                    for (int i = 0; i < 3; i++)
    15f8:	e2866001 	add	r6, r6, #1
    15fc:	e3560003 	cmp	r6, #3
    1600:	1affffe8 	bne	15a8 <mario_update_location+0x7f8>
    1604:	ea00001d 	b	1680 <mario_update_location+0x8d0>
                            isMoney[i] = true;
                        }
                    }
                    
                }
            }else if (!mario_fall && mario_jumped < MARIO_JUMP_HIGHT && mario_y <= 27){
    1608:	e30e3134 	movw	r3, #57652	; 0xe134
    160c:	e340301c 	movt	r3, #28
    1610:	e5d33015 	ldrb	r3, [r3, #21]
    1614:	e3530000 	cmp	r3, #0
    1618:	1a000012 	bne	1668 <mario_update_location+0x8b8>
    161c:	e30e3134 	movw	r3, #57652	; 0xe134
    1620:	e340301c 	movt	r3, #28
    1624:	e5933018 	ldr	r3, [r3, #24]
    1628:	e3530054 	cmp	r3, #84	; 0x54
    162c:	ca00000d 	bgt	1668 <mario_update_location+0x8b8>
    1630:	e3032e00 	movw	r2, #15872	; 0x3e00
    1634:	e3402000 	movt	r2, #0
    1638:	e5922010 	ldr	r2, [r2, #16]
    163c:	e352001b 	cmp	r2, #27
    1640:	ca000008 	bgt	1668 <mario_update_location+0x8b8>
                mario_y -= MARIO_JUMP_SPEED;
    1644:	e3031e00 	movw	r1, #15872	; 0x3e00
    1648:	e3401000 	movt	r1, #0
    164c:	e2422002 	sub	r2, r2, #2
    1650:	e5812010 	str	r2, [r1, #16]
                mario_jumped += MARIO_JUMP_SPEED;
    1654:	e30e2134 	movw	r2, #57652	; 0xe134
    1658:	e340201c 	movt	r2, #28
    165c:	e2833002 	add	r3, r3, #2
    1660:	e5823018 	str	r3, [r2, #24]
    1664:	ea000005 	b	1680 <mario_update_location+0x8d0>
            } else{
                mario_fall = true;
    1668:	e30e3134 	movw	r3, #57652	; 0xe134
    166c:	e340301c 	movt	r3, #28
    1670:	e3a02001 	mov	r2, #1
    1674:	e5c32015 	strb	r2, [r3, #21]
                mario_jumped = 0;
    1678:	e3a02000 	mov	r2, #0
    167c:	e5832018 	str	r2, [r3, #24]
            }

            if (mario_fall){
    1680:	e30e3134 	movw	r3, #57652	; 0xe134
    1684:	e340301c 	movt	r3, #28
    1688:	e5d33015 	ldrb	r3, [r3, #21]
    168c:	e3530000 	cmp	r3, #0
    1690:	0a0000be 	beq	1990 <mario_update_location+0xbe0>
                beat_mushroom();
    1694:	ebfffd96 	bl	cf4 <beat_mushroom>
                beat_turtle();
    1698:	ebfffcb2 	bl	968 <beat_turtle>
                mario_y += GRAVITY_FALL;
    169c:	e3033e00 	movw	r3, #15872	; 0x3e00
    16a0:	e3403000 	movt	r3, #0
    16a4:	e5932010 	ldr	r2, [r3, #16]
    16a8:	e2822003 	add	r2, r2, #3
    16ac:	e5832010 	str	r2, [r3, #16]
            }
        }
        //if not landing, cannot jump again
        //if on left steps
        if (mario_fall && steps_2_L_low_x < mario_x + 20 && mario_x + 5 < steps_2_L_high_x && mario_y + 25 <= steps_2_L_y + 20){
    16b0:	e30e3134 	movw	r3, #57652	; 0xe134
    16b4:	e340301c 	movt	r3, #28
    16b8:	e5d33015 	ldrb	r3, [r3, #21]
    16bc:	e3530000 	cmp	r3, #0
    16c0:	0a0000b2 	beq	1990 <mario_update_location+0xbe0>
    16c4:	e3033e00 	movw	r3, #15872	; 0x3e00
    16c8:	e3403000 	movt	r3, #0
    16cc:	e593100c 	ldr	r1, [r3, #12]
    16d0:	e2812014 	add	r2, r1, #20
    16d4:	e5933064 	ldr	r3, [r3, #100]	; 0x64
    16d8:	e1520003 	cmp	r2, r3
    16dc:	da000024 	ble	1774 <mario_update_location+0x9c4>
    16e0:	e2810005 	add	r0, r1, #5
    16e4:	e3033e00 	movw	r3, #15872	; 0x3e00
    16e8:	e3403000 	movt	r3, #0
    16ec:	e5933068 	ldr	r3, [r3, #104]	; 0x68
    16f0:	e1500003 	cmp	r0, r3
    16f4:	aa00001e 	bge	1774 <mario_update_location+0x9c4>
    16f8:	e3033e00 	movw	r3, #15872	; 0x3e00
    16fc:	e3403000 	movt	r3, #0
    1700:	e5930010 	ldr	r0, [r3, #16]
    1704:	e2800019 	add	r0, r0, #25
    1708:	e59330a0 	ldr	r3, [r3, #160]	; 0xa0
    170c:	e283c014 	add	r12, r3, #20
    1710:	e150000c 	cmp	r0, r12
    1714:	ca000016 	bgt	1774 <mario_update_location+0x9c4>
            if (mario_y + 25 >= steps_2_L_y){
    1718:	e1500003 	cmp	r0, r3
    171c:	ba000008 	blt	1744 <mario_update_location+0x994>
                mario_y = steps_2_L_y - 25;
    1720:	e3032e00 	movw	r2, #15872	; 0x3e00
    1724:	e3402000 	movt	r2, #0
    1728:	e2431019 	sub	r1, r3, #25
    172c:	e5821010 	str	r1, [r2, #16]
                mario_jump = false;
    1730:	e30e2134 	movw	r2, #57652	; 0xe134
    1734:	e340201c 	movt	r2, #28
    1738:	e3a01000 	mov	r1, #0
    173c:	e5c21014 	strb	r1, [r2, #20]
                mario_fall = false;
    1740:	e5c21015 	strb	r1, [r2, #21]
            }
            if (mario_y != steps_2_L_y - 25){
    1744:	e2433019 	sub	r3, r3, #25
    1748:	e3032e00 	movw	r2, #15872	; 0x3e00
    174c:	e3402000 	movt	r2, #0
    1750:	e5922010 	ldr	r2, [r2, #16]
    1754:	e1530002 	cmp	r3, r2
    1758:	0a00008c 	beq	1990 <mario_update_location+0xbe0>
                mario_jump = true;
    175c:	e30e3134 	movw	r3, #57652	; 0xe134
    1760:	e340301c 	movt	r3, #28
    1764:	e3a02001 	mov	r2, #1
    1768:	e5c32014 	strb	r2, [r3, #20]
                mario_fall = true;
    176c:	e5c32015 	strb	r2, [r3, #21]
    1770:	ea000086 	b	1990 <mario_update_location+0xbe0>
            }
        } else if (mario_fall && steps_2_R_low_x < mario_x + 20 && mario_x + 5 < steps_2_R_high_x && mario_y + 25 <= steps_2_R_y + 20){ // on right step
    1774:	e3033e00 	movw	r3, #15872	; 0x3e00
    1778:	e3403000 	movt	r3, #0
    177c:	e5933060 	ldr	r3, [r3, #96]	; 0x60
    1780:	e1520003 	cmp	r2, r3
    1784:	da000024 	ble	181c <mario_update_location+0xa6c>
    1788:	e2810005 	add	r0, r1, #5
    178c:	e3033e00 	movw	r3, #15872	; 0x3e00
    1790:	e3403000 	movt	r3, #0
    1794:	e59330a4 	ldr	r3, [r3, #164]	; 0xa4
    1798:	e1500003 	cmp	r0, r3
    179c:	aa00001e 	bge	181c <mario_update_location+0xa6c>
    17a0:	e3033e00 	movw	r3, #15872	; 0x3e00
    17a4:	e3403000 	movt	r3, #0
    17a8:	e5930010 	ldr	r0, [r3, #16]
    17ac:	e2800019 	add	r0, r0, #25
    17b0:	e59330a8 	ldr	r3, [r3, #168]	; 0xa8
    17b4:	e283c014 	add	r12, r3, #20
    17b8:	e150000c 	cmp	r0, r12
    17bc:	ca000016 	bgt	181c <mario_update_location+0xa6c>
            if (mario_y + 25 >= steps_2_R_y){
    17c0:	e1500003 	cmp	r0, r3
    17c4:	ba000008 	blt	17ec <mario_update_location+0xa3c>
                mario_y = steps_2_R_y - 25;
    17c8:	e3032e00 	movw	r2, #15872	; 0x3e00
    17cc:	e3402000 	movt	r2, #0
    17d0:	e2431019 	sub	r1, r3, #25
    17d4:	e5821010 	str	r1, [r2, #16]
                mario_jump = false;
    17d8:	e30e2134 	movw	r2, #57652	; 0xe134
    17dc:	e340201c 	movt	r2, #28
    17e0:	e3a01000 	mov	r1, #0
    17e4:	e5c21014 	strb	r1, [r2, #20]
                mario_fall = false;
    17e8:	e5c21015 	strb	r1, [r2, #21]
            }
            if (mario_y != steps_2_R_y - 25){
    17ec:	e2433019 	sub	r3, r3, #25
    17f0:	e3032e00 	movw	r2, #15872	; 0x3e00
    17f4:	e3402000 	movt	r2, #0
    17f8:	e5922010 	ldr	r2, [r2, #16]
    17fc:	e1530002 	cmp	r3, r2
    1800:	0a000062 	beq	1990 <mario_update_location+0xbe0>
                mario_jump = true;
    1804:	e30e3134 	movw	r3, #57652	; 0xe134
    1808:	e340301c 	movt	r3, #28
    180c:	e3a02001 	mov	r2, #1
    1810:	e5c32014 	strb	r2, [r3, #20]
                mario_fall = true;
    1814:	e5c32015 	strb	r2, [r3, #21]
    1818:	ea00005c 	b	1990 <mario_update_location+0xbe0>
            }
        } else if (mario_fall && pipe_2_L_low_x < mario_x + 20 && mario_x + 5 < pipe_2_L_high_x){//if on left pipe 
    181c:	e3033e00 	movw	r3, #15872	; 0x3e00
    1820:	e3403000 	movt	r3, #0
    1824:	e5933094 	ldr	r3, [r3, #148]	; 0x94
    1828:	e1520003 	cmp	r2, r3
    182c:	da000021 	ble	18b8 <mario_update_location+0xb08>
    1830:	e2810005 	add	r0, r1, #5
    1834:	e3033e00 	movw	r3, #15872	; 0x3e00
    1838:	e3403000 	movt	r3, #0
    183c:	e5933070 	ldr	r3, [r3, #112]	; 0x70
    1840:	e1500003 	cmp	r0, r3
    1844:	aa00001b 	bge	18b8 <mario_update_location+0xb08>
            if (mario_y + 25 >= pipe_2_L_y){
    1848:	e3033e00 	movw	r3, #15872	; 0x3e00
    184c:	e3403000 	movt	r3, #0
    1850:	e5932098 	ldr	r2, [r3, #152]	; 0x98
    1854:	e5933010 	ldr	r3, [r3, #16]
    1858:	e2833019 	add	r3, r3, #25
    185c:	e1530002 	cmp	r3, r2
    1860:	ba000008 	blt	1888 <mario_update_location+0xad8>
                mario_y = pipe_2_L_y - 25;
    1864:	e3033e00 	movw	r3, #15872	; 0x3e00
    1868:	e3403000 	movt	r3, #0
    186c:	e2421019 	sub	r1, r2, #25
    1870:	e5831010 	str	r1, [r3, #16]
                mario_jump = false;
    1874:	e30e3134 	movw	r3, #57652	; 0xe134
    1878:	e340301c 	movt	r3, #28
    187c:	e3a01000 	mov	r1, #0
    1880:	e5c31014 	strb	r1, [r3, #20]
                mario_fall = false;
    1884:	e5c31015 	strb	r1, [r3, #21]
            }
            if (mario_y != pipe_2_L_y - 25){
    1888:	e2422019 	sub	r2, r2, #25
    188c:	e3033e00 	movw	r3, #15872	; 0x3e00
    1890:	e3403000 	movt	r3, #0
    1894:	e5933010 	ldr	r3, [r3, #16]
    1898:	e1520003 	cmp	r2, r3
    189c:	0a00003b 	beq	1990 <mario_update_location+0xbe0>
                mario_jump = true;
    18a0:	e30e3134 	movw	r3, #57652	; 0xe134
    18a4:	e340301c 	movt	r3, #28
    18a8:	e3a02001 	mov	r2, #1
    18ac:	e5c32014 	strb	r2, [r3, #20]
                mario_fall = true;
    18b0:	e5c32015 	strb	r2, [r3, #21]
    18b4:	ea000035 	b	1990 <mario_update_location+0xbe0>
            }
        } else if (mario_fall && pipe_2_R_low_x < mario_x + 20 && mario_x + 5 < pipe_2_R_high_x){//if on right pipe 
    18b8:	e3033e00 	movw	r3, #15872	; 0x3e00
    18bc:	e3403000 	movt	r3, #0
    18c0:	e5933074 	ldr	r3, [r3, #116]	; 0x74
    18c4:	e1520003 	cmp	r2, r3
    18c8:	da000021 	ble	1954 <mario_update_location+0xba4>
    18cc:	e2811005 	add	r1, r1, #5
    18d0:	e3033e00 	movw	r3, #15872	; 0x3e00
    18d4:	e3403000 	movt	r3, #0
    18d8:	e59330ac 	ldr	r3, [r3, #172]	; 0xac
    18dc:	e1510003 	cmp	r1, r3
    18e0:	aa00001b 	bge	1954 <mario_update_location+0xba4>
            if (mario_y + 25 >= pipe_2_R_y){
    18e4:	e3033e00 	movw	r3, #15872	; 0x3e00
    18e8:	e3403000 	movt	r3, #0
    18ec:	e593209c 	ldr	r2, [r3, #156]	; 0x9c
    18f0:	e5933010 	ldr	r3, [r3, #16]
    18f4:	e2833019 	add	r3, r3, #25
    18f8:	e1530002 	cmp	r3, r2
    18fc:	ba000008 	blt	1924 <mario_update_location+0xb74>
                mario_y = pipe_2_R_y - 25;
    1900:	e3033e00 	movw	r3, #15872	; 0x3e00
    1904:	e3403000 	movt	r3, #0
    1908:	e2421019 	sub	r1, r2, #25
    190c:	e5831010 	str	r1, [r3, #16]
                mario_jump = false;
    1910:	e30e3134 	movw	r3, #57652	; 0xe134
    1914:	e340301c 	movt	r3, #28
    1918:	e3a01000 	mov	r1, #0
    191c:	e5c31014 	strb	r1, [r3, #20]
                mario_fall = false;
    1920:	e5c31015 	strb	r1, [r3, #21]
            }
            if (mario_y != pipe_2_R_y - 25){
    1924:	e2422019 	sub	r2, r2, #25
    1928:	e3033e00 	movw	r3, #15872	; 0x3e00
    192c:	e3403000 	movt	r3, #0
    1930:	e5933010 	ldr	r3, [r3, #16]
    1934:	e1520003 	cmp	r2, r3
    1938:	0a000014 	beq	1990 <mario_update_location+0xbe0>
                mario_jump = true;
    193c:	e30e3134 	movw	r3, #57652	; 0xe134
    1940:	e340301c 	movt	r3, #28
    1944:	e3a02001 	mov	r2, #1
    1948:	e5c32014 	strb	r2, [r3, #20]
                mario_fall = true;
    194c:	e5c32015 	strb	r2, [r3, #21]
    1950:	ea00000e 	b	1990 <mario_update_location+0xbe0>
            }
        } else if (mario_fall){
            if (mario_y + 25 >= LOWEST_Y){
    1954:	e3033e00 	movw	r3, #15872	; 0x3e00
    1958:	e3403000 	movt	r3, #0
    195c:	e5933010 	ldr	r3, [r3, #16]
    1960:	e2833019 	add	r3, r3, #25
    1964:	e35300c9 	cmp	r3, #201	; 0xc9
    1968:	da000008 	ble	1990 <mario_update_location+0xbe0>
                mario_y = LOWEST_Y - 25;
    196c:	e3033e00 	movw	r3, #15872	; 0x3e00
    1970:	e3403000 	movt	r3, #0
    1974:	e3a020b1 	mov	r2, #177	; 0xb1
    1978:	e5832010 	str	r2, [r3, #16]
                mario_jump = false;
    197c:	e30e3134 	movw	r3, #57652	; 0xe134
    1980:	e340301c 	movt	r3, #28
    1984:	e3a02000 	mov	r2, #0
    1988:	e5c32014 	strb	r2, [r3, #20]
                mario_fall = false;
    198c:	e5c32015 	strb	r2, [r3, #21]
            }
        }
        mario_move_backward = false;
    1990:	e30e3134 	movw	r3, #57652	; 0xe134
    1994:	e340301c 	movt	r3, #28
    1998:	e3a02000 	mov	r2, #0
    199c:	e5c32012 	strb	r2, [r3, #18]
        mario_move_forward = false;
    19a0:	e5c32013 	strb	r2, [r3, #19]

        //gravitational falling of Mario
        if (!mario_jump && (mario_x + 20 < steps_2_L_low_x || mario_x + 5 > steps_2_L_high_x) 
    19a4:	e5d33014 	ldrb	r3, [r3, #20]
    19a8:	e1530002 	cmp	r3, r2
    19ac:	1a0000ed 	bne	1d68 <mario_update_location+0xfb8>
    19b0:	e3033e00 	movw	r3, #15872	; 0x3e00
    19b4:	e3403000 	movt	r3, #0
    19b8:	e593100c 	ldr	r1, [r3, #12]
    19bc:	e2812014 	add	r2, r1, #20
    19c0:	e5933064 	ldr	r3, [r3, #100]	; 0x64
    19c4:	e1520003 	cmp	r2, r3
    19c8:	ba000005 	blt	19e4 <mario_update_location+0xc34>
    19cc:	e2810005 	add	r0, r1, #5
    19d0:	e3033e00 	movw	r3, #15872	; 0x3e00
    19d4:	e3403000 	movt	r3, #0
    19d8:	e5933068 	ldr	r3, [r3, #104]	; 0x68
    19dc:	e1500003 	cmp	r0, r3
    19e0:	da0000e0 	ble	1d68 <mario_update_location+0xfb8>
                        && (mario_x + 20 < steps_2_R_low_x || mario_x + 5 > steps_2_R_high_x) 
    19e4:	e3033e00 	movw	r3, #15872	; 0x3e00
    19e8:	e3403000 	movt	r3, #0
    19ec:	e5933060 	ldr	r3, [r3, #96]	; 0x60
    19f0:	e1520003 	cmp	r2, r3
    19f4:	ba000005 	blt	1a10 <mario_update_location+0xc60>
    19f8:	e2810005 	add	r0, r1, #5
    19fc:	e3033e00 	movw	r3, #15872	; 0x3e00
    1a00:	e3403000 	movt	r3, #0
    1a04:	e59330a4 	ldr	r3, [r3, #164]	; 0xa4
    1a08:	e1500003 	cmp	r0, r3
    1a0c:	da0000d5 	ble	1d68 <mario_update_location+0xfb8>
                        && (mario_x + 20 < pipe_2_L_low_x || mario_x + 5 > pipe_2_L_high_x) 
    1a10:	e3033e00 	movw	r3, #15872	; 0x3e00
    1a14:	e3403000 	movt	r3, #0
    1a18:	e5933094 	ldr	r3, [r3, #148]	; 0x94
    1a1c:	e1520003 	cmp	r2, r3
    1a20:	ba000005 	blt	1a3c <mario_update_location+0xc8c>
    1a24:	e2810005 	add	r0, r1, #5
    1a28:	e3033e00 	movw	r3, #15872	; 0x3e00
    1a2c:	e3403000 	movt	r3, #0
    1a30:	e5933070 	ldr	r3, [r3, #112]	; 0x70
    1a34:	e1500003 	cmp	r0, r3
    1a38:	da0000ca 	ble	1d68 <mario_update_location+0xfb8>
                        && (mario_x + 20 < pipe_2_R_low_x || mario_x + 5 > pipe_2_R_high_x) 
    1a3c:	e3033e00 	movw	r3, #15872	; 0x3e00
    1a40:	e3403000 	movt	r3, #0
    1a44:	e5933074 	ldr	r3, [r3, #116]	; 0x74
    1a48:	e1520003 	cmp	r2, r3
    1a4c:	ba000005 	blt	1a68 <mario_update_location+0xcb8>
    1a50:	e2811005 	add	r1, r1, #5
    1a54:	e3033e00 	movw	r3, #15872	; 0x3e00
    1a58:	e3403000 	movt	r3, #0
    1a5c:	e59330ac 	ldr	r3, [r3, #172]	; 0xac
    1a60:	e1510003 	cmp	r1, r3
    1a64:	da0000bf 	ble	1d68 <mario_update_location+0xfb8>
                        && mario_y + 25 < LOWEST_Y){
    1a68:	e3033e00 	movw	r3, #15872	; 0x3e00
    1a6c:	e3403000 	movt	r3, #0
    1a70:	e5933010 	ldr	r3, [r3, #16]
    1a74:	e2833019 	add	r3, r3, #25
    1a78:	e35300c9 	cmp	r3, #201	; 0xc9
    1a7c:	ca0000b9 	bgt	1d68 <mario_update_location+0xfb8>
            mario_fall = true;
    1a80:	e30e3134 	movw	r3, #57652	; 0xe134
    1a84:	e340301c 	movt	r3, #28
    1a88:	e3a02001 	mov	r2, #1
    1a8c:	e5c32015 	strb	r2, [r3, #21]
            mario_jump = true;
    1a90:	e5c32014 	strb	r2, [r3, #20]
    1a94:	ea0000b3 	b	1d68 <mario_update_location+0xfb8>
        } 
    } else if (map_num == 3){
    1a98:	e3530003 	cmp	r3, #3
    1a9c:	1a0000b1 	bne	1d68 <mario_update_location+0xfb8>
        //control mario depends on different flags
        if (mario_move_forward && (mario_x + 25 <= pipe_3_low_x || mario_x > pipe_3_low_x || mario_y + 25 <= pipe_3_y)){
    1aa0:	e30e3134 	movw	r3, #57652	; 0xe134
    1aa4:	e340301c 	movt	r3, #28
    1aa8:	e5d33013 	ldrb	r3, [r3, #19]
    1aac:	e3530000 	cmp	r3, #0
    1ab0:	0a000015 	beq	1b0c <mario_update_location+0xd5c>
    1ab4:	e3033e00 	movw	r3, #15872	; 0x3e00
    1ab8:	e3403000 	movt	r3, #0
    1abc:	e593200c 	ldr	r2, [r3, #12]
    1ac0:	e59330b0 	ldr	r3, [r3, #176]	; 0xb0
    1ac4:	e2821019 	add	r1, r2, #25
    1ac8:	e1510003 	cmp	r1, r3
    1acc:	da000008 	ble	1af4 <mario_update_location+0xd44>
    1ad0:	e1520003 	cmp	r2, r3
    1ad4:	ca000006 	bgt	1af4 <mario_update_location+0xd44>
    1ad8:	e3033e00 	movw	r3, #15872	; 0x3e00
    1adc:	e3403000 	movt	r3, #0
    1ae0:	e5931010 	ldr	r1, [r3, #16]
    1ae4:	e2811019 	add	r1, r1, #25
    1ae8:	e59330b4 	ldr	r3, [r3, #180]	; 0xb4
    1aec:	e1510003 	cmp	r1, r3
    1af0:	ca000005 	bgt	1b0c <mario_update_location+0xd5c>
            mario_x += MARIO_RUN_SPEED;
    1af4:	e3033e00 	movw	r3, #15872	; 0x3e00
    1af8:	e3403000 	movt	r3, #0
    1afc:	e2822003 	add	r2, r2, #3
    1b00:	e583200c 	str	r2, [r3, #12]
            is_mario_moving_forward = true;
    1b04:	e3a02001 	mov	r2, #1
    1b08:	e5c32084 	strb	r2, [r3, #132]	; 0x84
        } 
        if (mario_move_backward && (mario_x >= pipe_3_high_x || mario_x < pipe_3_high_x || mario_y + 25 <= pipe_3_y)){
    1b0c:	e30e3134 	movw	r3, #57652	; 0xe134
    1b10:	e340301c 	movt	r3, #28
    1b14:	e5d33012 	ldrb	r3, [r3, #18]
    1b18:	e3530000 	cmp	r3, #0
    1b1c:	0a000006 	beq	1b3c <mario_update_location+0xd8c>
            mario_x -= MARIO_RUN_SPEED;
    1b20:	e3033e00 	movw	r3, #15872	; 0x3e00
    1b24:	e3403000 	movt	r3, #0
    1b28:	e593200c 	ldr	r2, [r3, #12]
    1b2c:	e2422003 	sub	r2, r2, #3
    1b30:	e583200c 	str	r2, [r3, #12]
            is_mario_moving_forward = false;
    1b34:	e3a02000 	mov	r2, #0
    1b38:	e5c32084 	strb	r2, [r3, #132]	; 0x84
        }
        if (mario_jump){
    1b3c:	e30e3134 	movw	r3, #57652	; 0xe134
    1b40:	e340301c 	movt	r3, #28
    1b44:	e5d33014 	ldrb	r3, [r3, #20]
    1b48:	e3530000 	cmp	r3, #0
    1b4c:	0a000028 	beq	1bf4 <mario_update_location+0xe44>
            if (!mario_fall && mario_jumped < MARIO_JUMP_HIGHT && mario_y <= 27){
    1b50:	e30e3134 	movw	r3, #57652	; 0xe134
    1b54:	e340301c 	movt	r3, #28
    1b58:	e5d33015 	ldrb	r3, [r3, #21]
    1b5c:	e3530000 	cmp	r3, #0
    1b60:	1a000012 	bne	1bb0 <mario_update_location+0xe00>
    1b64:	e30e3134 	movw	r3, #57652	; 0xe134
    1b68:	e340301c 	movt	r3, #28
    1b6c:	e5933018 	ldr	r3, [r3, #24]
    1b70:	e3530054 	cmp	r3, #84	; 0x54
    1b74:	ca00000d 	bgt	1bb0 <mario_update_location+0xe00>
    1b78:	e3032e00 	movw	r2, #15872	; 0x3e00
    1b7c:	e3402000 	movt	r2, #0
    1b80:	e5922010 	ldr	r2, [r2, #16]
    1b84:	e352001b 	cmp	r2, #27
    1b88:	ca000008 	bgt	1bb0 <mario_update_location+0xe00>
                mario_y -= MARIO_JUMP_SPEED;
    1b8c:	e3031e00 	movw	r1, #15872	; 0x3e00
    1b90:	e3401000 	movt	r1, #0
    1b94:	e2422002 	sub	r2, r2, #2
    1b98:	e5812010 	str	r2, [r1, #16]
                mario_jumped += MARIO_JUMP_SPEED;
    1b9c:	e30e2134 	movw	r2, #57652	; 0xe134
    1ba0:	e340201c 	movt	r2, #28
    1ba4:	e2833002 	add	r3, r3, #2
    1ba8:	e5823018 	str	r3, [r2, #24]
    1bac:	ea000005 	b	1bc8 <mario_update_location+0xe18>
            } else{
                mario_fall = true;
    1bb0:	e30e3134 	movw	r3, #57652	; 0xe134
    1bb4:	e340301c 	movt	r3, #28
    1bb8:	e3a02001 	mov	r2, #1
    1bbc:	e5c32015 	strb	r2, [r3, #21]
                mario_jumped = 0;
    1bc0:	e3a02000 	mov	r2, #0
    1bc4:	e5832018 	str	r2, [r3, #24]
            }

            if (mario_fall){
    1bc8:	e30e3134 	movw	r3, #57652	; 0xe134
    1bcc:	e340301c 	movt	r3, #28
    1bd0:	e5d33015 	ldrb	r3, [r3, #21]
    1bd4:	e3530000 	cmp	r3, #0
    1bd8:	0a000043 	beq	1cec <mario_update_location+0xf3c>
                beat_mushroom();
    1bdc:	ebfffc44 	bl	cf4 <beat_mushroom>
                mario_y += GRAVITY_FALL;
    1be0:	e3033e00 	movw	r3, #15872	; 0x3e00
    1be4:	e3403000 	movt	r3, #0
    1be8:	e5932010 	ldr	r2, [r3, #16]
    1bec:	e2822003 	add	r2, r2, #3
    1bf0:	e5832010 	str	r2, [r3, #16]
            }
        }
        //if not landing, cannot jump again
        if (mario_fall && pipe_3_low_x < mario_x + 20 && mario_x + 5 < pipe_3_high_x){//if on right pipe 
    1bf4:	e30e3134 	movw	r3, #57652	; 0xe134
    1bf8:	e340301c 	movt	r3, #28
    1bfc:	e5d33015 	ldrb	r3, [r3, #21]
    1c00:	e3530000 	cmp	r3, #0
    1c04:	0a000038 	beq	1cec <mario_update_location+0xf3c>
    1c08:	e3033e00 	movw	r3, #15872	; 0x3e00
    1c0c:	e3403000 	movt	r3, #0
    1c10:	e593200c 	ldr	r2, [r3, #12]
    1c14:	e2821014 	add	r1, r2, #20
    1c18:	e59330b0 	ldr	r3, [r3, #176]	; 0xb0
    1c1c:	e1510003 	cmp	r1, r3
    1c20:	da000022 	ble	1cb0 <mario_update_location+0xf00>
    1c24:	e2822005 	add	r2, r2, #5
    1c28:	e3033e00 	movw	r3, #15872	; 0x3e00
    1c2c:	e3403000 	movt	r3, #0
    1c30:	e5933078 	ldr	r3, [r3, #120]	; 0x78
    1c34:	e1520003 	cmp	r2, r3
    1c38:	aa00001c 	bge	1cb0 <mario_update_location+0xf00>
            if (mario_y + 25 >= pipe_3_y){
    1c3c:	e3033e00 	movw	r3, #15872	; 0x3e00
    1c40:	e3403000 	movt	r3, #0
    1c44:	e59320b4 	ldr	r2, [r3, #180]	; 0xb4
    1c48:	e5933010 	ldr	r3, [r3, #16]
    1c4c:	e2833019 	add	r3, r3, #25
    1c50:	e1530002 	cmp	r3, r2
    1c54:	ba000008 	blt	1c7c <mario_update_location+0xecc>
                mario_y = pipe_3_y - 25;
    1c58:	e3033e00 	movw	r3, #15872	; 0x3e00
    1c5c:	e3403000 	movt	r3, #0
    1c60:	e2421019 	sub	r1, r2, #25
    1c64:	e5831010 	str	r1, [r3, #16]
                mario_jump = false;
    1c68:	e30e3134 	movw	r3, #57652	; 0xe134
    1c6c:	e340301c 	movt	r3, #28
    1c70:	e3a01000 	mov	r1, #0
    1c74:	e5c31014 	strb	r1, [r3, #20]
                mario_fall = false;
    1c78:	e5c31015 	strb	r1, [r3, #21]
            }
            if (mario_y != pipe_3_y - 25){
    1c7c:	e2422019 	sub	r2, r2, #25
    1c80:	e3033e00 	movw	r3, #15872	; 0x3e00
    1c84:	e3403000 	movt	r3, #0
    1c88:	e5933010 	ldr	r3, [r3, #16]
    1c8c:	e1520003 	cmp	r2, r3
    1c90:	0a000015 	beq	1cec <mario_update_location+0xf3c>
                mario_jump = true;
    1c94:	e30e3134 	movw	r3, #57652	; 0xe134
    1c98:	e340301c 	movt	r3, #28
    1c9c:	e3a02001 	mov	r2, #1
    1ca0:	e5c32014 	strb	r2, [r3, #20]
                mario_fall = true;
    1ca4:	e5c32015 	strb	r2, [r3, #21]
    1ca8:	ea00000f 	b	1cec <mario_update_location+0xf3c>
    1cac:	00003e2c 	.word	0x00003e2c
            }
        } else if (mario_fall){
            if (mario_y + 25 >= LOWEST_Y){
    1cb0:	e3033e00 	movw	r3, #15872	; 0x3e00
    1cb4:	e3403000 	movt	r3, #0
    1cb8:	e5933010 	ldr	r3, [r3, #16]
    1cbc:	e2833019 	add	r3, r3, #25
    1cc0:	e35300c9 	cmp	r3, #201	; 0xc9
    1cc4:	da000008 	ble	1cec <mario_update_location+0xf3c>
                mario_y = LOWEST_Y - 25;
    1cc8:	e3033e00 	movw	r3, #15872	; 0x3e00
    1ccc:	e3403000 	movt	r3, #0
    1cd0:	e3a020b1 	mov	r2, #177	; 0xb1
    1cd4:	e5832010 	str	r2, [r3, #16]
                mario_jump = false;
    1cd8:	e30e3134 	movw	r3, #57652	; 0xe134
    1cdc:	e340301c 	movt	r3, #28
    1ce0:	e3a02000 	mov	r2, #0
    1ce4:	e5c32014 	strb	r2, [r3, #20]
                mario_fall = false;
    1ce8:	e5c32015 	strb	r2, [r3, #21]
            }
        }
        mario_move_backward = false;
    1cec:	e30e3134 	movw	r3, #57652	; 0xe134
    1cf0:	e340301c 	movt	r3, #28
    1cf4:	e3a02000 	mov	r2, #0
    1cf8:	e5c32012 	strb	r2, [r3, #18]
        mario_move_forward = false;
    1cfc:	e5c32013 	strb	r2, [r3, #19]

        //gravitational falling of Mario
        if (!mario_jump && (mario_x + 20 < pipe_3_low_x || mario_x + 5 > pipe_3_high_x) 
    1d00:	e5d33014 	ldrb	r3, [r3, #20]
    1d04:	e1530002 	cmp	r3, r2
    1d08:	1a000016 	bne	1d68 <mario_update_location+0xfb8>
    1d0c:	e3033e00 	movw	r3, #15872	; 0x3e00
    1d10:	e3403000 	movt	r3, #0
    1d14:	e593200c 	ldr	r2, [r3, #12]
    1d18:	e2821014 	add	r1, r2, #20
    1d1c:	e59330b0 	ldr	r3, [r3, #176]	; 0xb0
    1d20:	e1510003 	cmp	r1, r3
    1d24:	ba000005 	blt	1d40 <mario_update_location+0xf90>
    1d28:	e2822005 	add	r2, r2, #5
    1d2c:	e3033e00 	movw	r3, #15872	; 0x3e00
    1d30:	e3403000 	movt	r3, #0
    1d34:	e5933078 	ldr	r3, [r3, #120]	; 0x78
    1d38:	e1520003 	cmp	r2, r3
    1d3c:	da000009 	ble	1d68 <mario_update_location+0xfb8>
                        && mario_y + 25 < LOWEST_Y){
    1d40:	e3033e00 	movw	r3, #15872	; 0x3e00
    1d44:	e3403000 	movt	r3, #0
    1d48:	e5933010 	ldr	r3, [r3, #16]
    1d4c:	e2833019 	add	r3, r3, #25
    1d50:	e35300c9 	cmp	r3, #201	; 0xc9
            mario_fall = true;
    1d54:	d30e3134 	movwle	r3, #57652	; 0xe134
    1d58:	d340301c 	movtle	r3, #28
    1d5c:	d3a02001 	movle	r2, #1
    1d60:	d5c32015 	strble	r2, [r3, #21]
            mario_jump = true;
    1d64:	d5c32014 	strble	r2, [r3, #20]
        } 
    }
    
    if (!isGameOver && !isWin){
    1d68:	e30e3134 	movw	r3, #57652	; 0xe134
    1d6c:	e340301c 	movt	r3, #28
    1d70:	e5d33011 	ldrb	r3, [r3, #17]
    1d74:	e3530000 	cmp	r3, #0
    1d78:	1a00007a 	bne	1f68 <mario_update_location+0x11b8>
    1d7c:	e30e3134 	movw	r3, #57652	; 0xe134
    1d80:	e340301c 	movt	r3, #28
    1d84:	e5d33010 	ldrb	r3, [r3, #16]
    1d88:	e3530000 	cmp	r3, #0
    1d8c:	1a000075 	bne	1f68 <mario_update_location+0x11b8>
        //whether Mario picks moneys
        for (int i = 0; i < 3; i++)
        {
            if (mario_x + MARIO_MID >= money_x[i] && mario_x + MARIO_MID <= money_x[i] + 16 && money_y[i] + 19 >= mario_y && mario_y + 25 >= money_y[i]){
    1d90:	e3034e00 	movw	r4, #15872	; 0x3e00
    1d94:	e3404000 	movt	r4, #0
    1d98:	e594000c 	ldr	r0, [r4, #12]
    1d9c:	eb000527 	bl	3240 <__aeabi_i2d>
    1da0:	e3a02000 	mov	r2, #0
    1da4:	e3a03000 	mov	r3, #0
    1da8:	e3443029 	movt	r3, #16425	; 0x4029
    1dac:	eb000456 	bl	2f0c <__adddf3>
    1db0:	e1a0a000 	mov	r10, r0
    1db4:	e1a0b001 	mov	r11, r1
    1db8:	e5944010 	ldr	r4, [r4, #16]
    1dbc:	e58d4000 	str	r4, [sp]
    1dc0:	e2841019 	add	r1, r4, #25
    1dc4:	e58d1004 	str	r1, [sp, #4]
    1dc8:	e30e3134 	movw	r3, #57652	; 0xe134
    1dcc:	e340301c 	movt	r3, #28
    1dd0:	e5939000 	ldr	r9, [r3]
    1dd4:	e3a04000 	mov	r4, #0
    1dd8:	e1a06004 	mov	r6, r4
    1ddc:	e3037e00 	movw	r7, #15872	; 0x3e00
    1de0:	e3407000 	movt	r7, #0
                isMoney[i] = false;
    1de4:	e1a08003 	mov	r8, r3
    
    if (!isGameOver && !isWin){
        //whether Mario picks moneys
        for (int i = 0; i < 3; i++)
        {
            if (mario_x + MARIO_MID >= money_x[i] && mario_x + MARIO_MID <= money_x[i] + 16 && money_y[i] + 19 >= mario_y && mario_y + 25 >= money_y[i]){
    1de8:	e2873030 	add	r3, r7, #48	; 0x30
    1dec:	e7945003 	ldr	r5, [r4, r3]
    1df0:	e1a00005 	mov	r0, r5
    1df4:	eb000511 	bl	3240 <__aeabi_i2d>
    1df8:	e1a02000 	mov	r2, r0
    1dfc:	e1a03001 	mov	r3, r1
    1e00:	e1a0000a 	mov	r0, r10
    1e04:	e1a0100b 	mov	r1, r11
    1e08:	eb0006af 	bl	38cc <__aeabi_dcmpge>
    1e0c:	e3500000 	cmp	r0, #0
    1e10:	0a00001a 	beq	1e80 <mario_update_location+0x10d0>
    1e14:	e2850010 	add	r0, r5, #16
    1e18:	eb000508 	bl	3240 <__aeabi_i2d>
    1e1c:	e1a02000 	mov	r2, r0
    1e20:	e1a03001 	mov	r3, r1
    1e24:	e1a0000a 	mov	r0, r10
    1e28:	e1a0100b 	mov	r1, r11
    1e2c:	eb0006a0 	bl	38b4 <__aeabi_dcmple>
    1e30:	e3500000 	cmp	r0, #0
    1e34:	0a000011 	beq	1e80 <mario_update_location+0x10d0>
    1e38:	e287303c 	add	r3, r7, #60	; 0x3c
    1e3c:	e7943003 	ldr	r3, [r4, r3]
    1e40:	e2832013 	add	r2, r3, #19
    1e44:	e59d1000 	ldr	r1, [sp]
    1e48:	e1520001 	cmp	r2, r1
    1e4c:	ba00000b 	blt	1e80 <mario_update_location+0x10d0>
    1e50:	e59d2004 	ldr	r2, [sp, #4]
    1e54:	e1530002 	cmp	r3, r2
    1e58:	ca000008 	bgt	1e80 <mario_update_location+0x10d0>
                isMoney[i] = false;
    1e5c:	e2883008 	add	r3, r8, #8
    1e60:	e3a01000 	mov	r1, #0
    1e64:	e7c61003 	strb	r1, [r6, r3]
                money_x[i] = OUT_SCREEN;
    1e68:	e2873030 	add	r3, r7, #48	; 0x30
    1e6c:	e3e02031 	mvn	r2, #49	; 0x31
    1e70:	e7842003 	str	r2, [r4, r3]
                money_y[i] = OUT_SCREEN;
    1e74:	e287303c 	add	r3, r7, #60	; 0x3c
    1e78:	e7842003 	str	r2, [r4, r3]
                score++;
    1e7c:	e2899001 	add	r9, r9, #1
        } 
    }
    
    if (!isGameOver && !isWin){
        //whether Mario picks moneys
        for (int i = 0; i < 3; i++)
    1e80:	e2866001 	add	r6, r6, #1
    1e84:	e2844004 	add	r4, r4, #4
    1e88:	e354000c 	cmp	r4, #12
    1e8c:	1affffd5 	bne	1de8 <mario_update_location+0x1038>
    1e90:	e30e3134 	movw	r3, #57652	; 0xe134
    1e94:	e340301c 	movt	r3, #28
    1e98:	e5839000 	str	r9, [r3]
                money_y[i] = OUT_SCREEN;
                score++;
            }
        }
        //whether Mario picks Good Mushroom
        if (mario_x + MARIO_MID >= goodMushroom_x && mario_x + MARIO_MID <= goodMushroom_x + 19 && goodMushroom_y + 19 >= mario_y && mario_y + 25 >= goodMushroom_y){
    1e9c:	e3036e00 	movw	r6, #15872	; 0x3e00
    1ea0:	e3406000 	movt	r6, #0
    1ea4:	e596000c 	ldr	r0, [r6, #12]
    1ea8:	eb0004e4 	bl	3240 <__aeabi_i2d>
    1eac:	e3a02000 	mov	r2, #0
    1eb0:	e3a03000 	mov	r3, #0
    1eb4:	e3443029 	movt	r3, #16425	; 0x4029
    1eb8:	eb000413 	bl	2f0c <__adddf3>
    1ebc:	e1a04000 	mov	r4, r0
    1ec0:	e1a05001 	mov	r5, r1
    1ec4:	e5966048 	ldr	r6, [r6, #72]	; 0x48
    1ec8:	e1a00006 	mov	r0, r6
    1ecc:	eb0004db 	bl	3240 <__aeabi_i2d>
    1ed0:	e1a02000 	mov	r2, r0
    1ed4:	e1a03001 	mov	r3, r1
    1ed8:	e1a00004 	mov	r0, r4
    1edc:	e1a01005 	mov	r1, r5
    1ee0:	eb000679 	bl	38cc <__aeabi_dcmpge>
    1ee4:	e3500000 	cmp	r0, #0
    1ee8:	0a00001e 	beq	1f68 <mario_update_location+0x11b8>
    1eec:	e2860013 	add	r0, r6, #19
    1ef0:	eb0004d2 	bl	3240 <__aeabi_i2d>
    1ef4:	e1a02000 	mov	r2, r0
    1ef8:	e1a03001 	mov	r3, r1
    1efc:	e1a00004 	mov	r0, r4
    1f00:	e1a01005 	mov	r1, r5
    1f04:	eb00066a 	bl	38b4 <__aeabi_dcmple>
    1f08:	e3500000 	cmp	r0, #0
    1f0c:	0a000015 	beq	1f68 <mario_update_location+0x11b8>
    1f10:	e3033e00 	movw	r3, #15872	; 0x3e00
    1f14:	e3403000 	movt	r3, #0
    1f18:	e593204c 	ldr	r2, [r3, #76]	; 0x4c
    1f1c:	e5933010 	ldr	r3, [r3, #16]
    1f20:	e2821013 	add	r1, r2, #19
    1f24:	e1510003 	cmp	r1, r3
    1f28:	ba00000e 	blt	1f68 <mario_update_location+0x11b8>
    1f2c:	e2833019 	add	r3, r3, #25
    1f30:	e1520003 	cmp	r2, r3
    1f34:	ca00000b 	bgt	1f68 <mario_update_location+0x11b8>
            isGoodMushroom = false;
    1f38:	e30e3134 	movw	r3, #57652	; 0xe134
    1f3c:	e340301c 	movt	r3, #28
    1f40:	e3a02000 	mov	r2, #0
    1f44:	e5c3200b 	strb	r2, [r3, #11]
            goodMushroom_x = OUT_SCREEN;
    1f48:	e3033e00 	movw	r3, #15872	; 0x3e00
    1f4c:	e3403000 	movt	r3, #0
    1f50:	e3e02031 	mvn	r2, #49	; 0x31
    1f54:	e5832048 	str	r2, [r3, #72]	; 0x48
            goodMushroom_y = OUT_SCREEN;
    1f58:	e583204c 	str	r2, [r3, #76]	; 0x4c
            lives++;
    1f5c:	e5932004 	ldr	r2, [r3, #4]
    1f60:	e2822001 	add	r2, r2, #1
    1f64:	e5832004 	str	r2, [r3, #4]
        }
    }
    

    //whether Mario go to next map
    if (map_num != 3 && mario_x + MARIO_MID >= SCREEN_WIDTH){
    1f68:	e3033e00 	movw	r3, #15872	; 0x3e00
    1f6c:	e3403000 	movt	r3, #0
    1f70:	e5934000 	ldr	r4, [r3]
    1f74:	e3540003 	cmp	r4, #3
    1f78:	0a000013 	beq	1fcc <mario_update_location+0x121c>
    1f7c:	e3033e00 	movw	r3, #15872	; 0x3e00
    1f80:	e3403000 	movt	r3, #0
    1f84:	e593000c 	ldr	r0, [r3, #12]
    1f88:	eb0004ac 	bl	3240 <__aeabi_i2d>
    1f8c:	e3a02000 	mov	r2, #0
    1f90:	e3a03000 	mov	r3, #0
    1f94:	e3443029 	movt	r3, #16425	; 0x4029
    1f98:	eb0003db 	bl	2f0c <__adddf3>
    1f9c:	e3a02000 	mov	r2, #0
    1fa0:	e3a03000 	mov	r3, #0
    1fa4:	e3443074 	movt	r3, #16500	; 0x4074
    1fa8:	eb000647 	bl	38cc <__aeabi_dcmpge>
    1fac:	e3500000 	cmp	r0, #0
    1fb0:	0a000016 	beq	2010 <mario_update_location+0x1260>
        map_num++;
    1fb4:	e3033e00 	movw	r3, #15872	; 0x3e00
    1fb8:	e3403000 	movt	r3, #0
    1fbc:	e2844001 	add	r4, r4, #1
    1fc0:	e5834000 	str	r4, [r3]
        reset_characters();       
    1fc4:	ebfff9d4 	bl	71c <reset_characters>
    1fc8:	ea000010 	b	2010 <mario_update_location+0x1260>
    } else if (map_num == 3 && mario_x + MARIO_MID >= ENDING){
    1fcc:	e3033e00 	movw	r3, #15872	; 0x3e00
    1fd0:	e3403000 	movt	r3, #0
    1fd4:	e593000c 	ldr	r0, [r3, #12]
    1fd8:	eb000498 	bl	3240 <__aeabi_i2d>
    1fdc:	e3a02000 	mov	r2, #0
    1fe0:	e3a03000 	mov	r3, #0
    1fe4:	e3443029 	movt	r3, #16425	; 0x4029
    1fe8:	eb0003c7 	bl	2f0c <__adddf3>
    1fec:	e3a02000 	mov	r2, #0
    1ff0:	e3a03903 	mov	r3, #49152	; 0xc000
    1ff4:	e344306f 	movt	r3, #16495	; 0x406f
    1ff8:	eb000633 	bl	38cc <__aeabi_dcmpge>
    1ffc:	e3500000 	cmp	r0, #0
        isWin = true;
    2000:	130e3134 	movwne	r3, #57652	; 0xe134
    2004:	1340301c 	movtne	r3, #28
    2008:	13a02001 	movne	r2, #1
    200c:	15c32010 	strbne	r2, [r3, #16]
    }
}
    2010:	e28dd00c 	add	sp, sp, #12
    2014:	e8bd8ff0 	pop	{r4, r5, r6, r7, r8, r9, r10, r11, pc}

00002018 <update_location>:
        pixel_buffer_start = *(pixel_ctrl_ptr + 1); // new back buffer
    }
}

//update locations for all characters
void update_location(){
    2018:	e92d4008 	push	{r3, lr}
    mario_update_location();
    201c:	ebfffb63 	bl	db0 <mario_update_location>
    bad_mushroom_update_location();
    2020:	ebfffa79 	bl	a0c <bad_mushroom_update_location>
    turtle_update_location();
    2024:	ebfff9f6 	bl	804 <turtle_update_location>
    //check whether the game is over
    if (lives <= 0){
    2028:	e3033e00 	movw	r3, #15872	; 0x3e00
    202c:	e3403000 	movt	r3, #0
    2030:	e5933004 	ldr	r3, [r3, #4]
    2034:	e3530000 	cmp	r3, #0
        isGameOver = true;
    2038:	d30e3134 	movwle	r3, #57652	; 0xe134
    203c:	d340301c 	movtle	r3, #28
    2040:	d3a02001 	movle	r2, #1
    2044:	d5c32011 	strble	r2, [r3, #17]
    2048:	e8bd8008 	pop	{r3, pc}

0000204c <plot_pixel>:
}

// code for subroutines (not shown)
void plot_pixel(int x, int y, short int line_color)
{
    *(short int *)(pixel_buffer_start + (y << 10) + (x << 1)) = line_color;
    204c:	e30e3134 	movw	r3, #57652	; 0xe134
    2050:	e340301c 	movt	r3, #28
    2054:	e593301c 	ldr	r3, [r3, #28]
    2058:	e1a00080 	lsl	r0, r0, #1
    205c:	e0831501 	add	r1, r3, r1, lsl #10
    2060:	e18120b0 	strh	r2, [r1, r0]
    2064:	e12fff1e 	bx	lr

00002068 <draw_image>:
    }
}

//helper function to draw any image
//x,y as the coordinate of right top conor
void draw_image(int x, int y, int color[], int width, int height){
    2068:	e92d4ff0 	push	{r4, r5, r6, r7, r8, r9, r10, r11, lr}
    206c:	e24dd014 	sub	sp, sp, #20
    2070:	e58d100c 	str	r1, [sp, #12]
    for (int i = 0; i < width; i++)
    2074:	e3530000 	cmp	r3, #0
    2078:	e58d3008 	str	r3, [sp, #8]
    207c:	da00002b 	ble	2130 <draw_image+0xc8>
    2080:	e1a06000 	mov	r6, r0
    2084:	e1a07002 	mov	r7, r2
    }
}

//helper function to draw any image
//x,y as the coordinate of right top conor
void draw_image(int x, int y, int color[], int width, int height){
    2088:	e1a09103 	lsl	r9, r3, #2
    for (int i = 0; i < width; i++)
    208c:	e3a01000 	mov	r1, #0
    2090:	e58d1004 	str	r1, [sp, #4]
    }
}

//helper function to draw any image
//x,y as the coordinate of right top conor
void draw_image(int x, int y, int color[], int width, int height){
    2094:	e59d200c 	ldr	r2, [sp, #12]
    2098:	e59d3038 	ldr	r3, [sp, #56]	; 0x38
    209c:	e082a003 	add	r10, r2, r3
            //location of the image drew on the screen
            int plot_x = x + i;
            int plot_y = y + j;

            //filter the transparent color and do not draw when out of screen
            if (color[j * width + i] == 0xf81f || plot_x >= SCREEN_WIDTH || plot_y >= SCREEN_HEIGHT || plot_x < 0 || plot_y < 0){
    20a0:	e30f881f 	movw	r8, #63519	; 0xf81f
    20a4:	e300b13f 	movw	r11, #319	; 0x13f
    20a8:	ea000018 	b	2110 <draw_image+0xa8>
    20ac:	e7972005 	ldr	r2, [r7, r5]
    20b0:	e1520008 	cmp	r2, r8
    20b4:	0a000009 	beq	20e0 <draw_image+0x78>
    for (int i = 0; i < width; i++)
    {
        for (int j = 0; j < height; j++)
        {
            //location of the image drew on the screen
            int plot_x = x + i;
    20b8:	e1a00006 	mov	r0, r6
            int plot_y = y + j;
    20bc:	e1a01004 	mov	r1, r4

            //filter the transparent color and do not draw when out of screen
            if (color[j * width + i] == 0xf81f || plot_x >= SCREEN_WIDTH || plot_y >= SCREEN_HEIGHT || plot_x < 0 || plot_y < 0){
    20c0:	e156000b 	cmp	r6, r11
    20c4:	d35400ef 	cmple	r4, #239	; 0xef
    20c8:	ca000004 	bgt	20e0 <draw_image+0x78>
    20cc:	e59d3000 	ldr	r3, [sp]
    20d0:	e1933fa4 	orrs	r3, r3, r4, lsr #31
    20d4:	1a000001 	bne	20e0 <draw_image+0x78>
                continue;
            }

            plot_pixel(plot_x, plot_y, color[j * width + i]);
    20d8:	e6bf2072 	sxth	r2, r2
    20dc:	ebffffda 	bl	204c <plot_pixel>
    20e0:	e0855009 	add	r5, r5, r9
    20e4:	e2844001 	add	r4, r4, #1
//helper function to draw any image
//x,y as the coordinate of right top conor
void draw_image(int x, int y, int color[], int width, int height){
    for (int i = 0; i < width; i++)
    {
        for (int j = 0; j < height; j++)
    20e8:	e154000a 	cmp	r4, r10
    20ec:	1affffee 	bne	20ac <draw_image+0x44>
}

//helper function to draw any image
//x,y as the coordinate of right top conor
void draw_image(int x, int y, int color[], int width, int height){
    for (int i = 0; i < width; i++)
    20f0:	e59d1004 	ldr	r1, [sp, #4]
    20f4:	e2811001 	add	r1, r1, #1
    20f8:	e58d1004 	str	r1, [sp, #4]
    20fc:	e2866001 	add	r6, r6, #1
    2100:	e2877004 	add	r7, r7, #4
    2104:	e59d2008 	ldr	r2, [sp, #8]
    2108:	e1510002 	cmp	r1, r2
    210c:	0a000007 	beq	2130 <draw_image+0xc8>
    {
        for (int j = 0; j < height; j++)
    2110:	e59d3038 	ldr	r3, [sp, #56]	; 0x38
    2114:	e3530000 	cmp	r3, #0
    2118:	dafffff4 	ble	20f0 <draw_image+0x88>
    211c:	e59d400c 	ldr	r4, [sp, #12]
    }
}

//helper function to draw any image
//x,y as the coordinate of right top conor
void draw_image(int x, int y, int color[], int width, int height){
    2120:	e3a05000 	mov	r5, #0
            //location of the image drew on the screen
            int plot_x = x + i;
            int plot_y = y + j;

            //filter the transparent color and do not draw when out of screen
            if (color[j * width + i] == 0xf81f || plot_x >= SCREEN_WIDTH || plot_y >= SCREEN_HEIGHT || plot_x < 0 || plot_y < 0){
    2124:	e1a01fa6 	lsr	r1, r6, #31
    2128:	e58d1000 	str	r1, [sp]
    212c:	eaffffde 	b	20ac <draw_image+0x44>
            plot_pixel(plot_x, plot_y, color[j * width + i]);
        }
        
    }
    
}
    2130:	e28dd014 	add	sp, sp, #20
    2134:	e8bd8ff0 	pop	{r4, r5, r6, r7, r8, r9, r10, r11, pc}

00002138 <draw_background>:
    }
    return;
}

//helper function to draw any background
void draw_background(){
    2138:	e92d4ff0 	push	{r4, r5, r6, r7, r8, r9, r10, r11, lr}
    213c:	e24dd00c 	sub	sp, sp, #12
    for (int x = 0; x < SCREEN_WIDTH; ++x)
    2140:	e3a02000 	mov	r2, #0
    2144:	e58d2004 	str	r2, [sp, #4]
    }
    return;
}

//helper function to draw any background
void draw_background(){
    2148:	e303be00 	movw	r11, #15872	; 0x3e00
    214c:	e340b000 	movt	r11, #0
    2150:	ea00003f 	b	2254 <draw_background+0x11c>
    for (int x = 0; x < SCREEN_WIDTH; ++x)
    {
        for (int y = 0; y <= SCREEN_HEIGHT; ++y)
        {
            if (isFirstTime){
    2154:	e5db305c 	ldrb	r3, [r11, #92]	; 0x5c
    2158:	e3530000 	cmp	r3, #0
    215c:	0a000004 	beq	2174 <draw_background+0x3c>
                plot_pixel(x, y, open[y * SCREEN_WIDTH + x]);
    2160:	e59d0004 	ldr	r0, [sp, #4]
    2164:	e1a01004 	mov	r1, r4
    2168:	e1d520f0 	ldrsh	r2, [r5]
    216c:	ebffffb6 	bl	204c <plot_pixel>
    2170:	ea000029 	b	221c <draw_background+0xe4>
            } else if (isGameOver){ //check whether the game is over
    2174:	e59d2000 	ldr	r2, [sp]
    2178:	e5d23011 	ldrb	r3, [r2, #17]
    217c:	e3530000 	cmp	r3, #0
    2180:	0a000004 	beq	2198 <draw_background+0x60>
                plot_pixel(x, y, game_over[y * SCREEN_WIDTH + x]);
    2184:	e59d0004 	ldr	r0, [sp, #4]
    2188:	e1a01004 	mov	r1, r4
    218c:	e1d620f0 	ldrsh	r2, [r6]
    2190:	ebffffad 	bl	204c <plot_pixel>
    2194:	ea000020 	b	221c <draw_background+0xe4>
            } else if (isWin){
    2198:	e59d2000 	ldr	r2, [sp]
    219c:	e5d23010 	ldrb	r3, [r2, #16]
    21a0:	e3530000 	cmp	r3, #0
    21a4:	0a000004 	beq	21bc <draw_background+0x84>
                plot_pixel(x, y, win[y * SCREEN_WIDTH + x]);
    21a8:	e59d0004 	ldr	r0, [sp, #4]
    21ac:	e1a01004 	mov	r1, r4
    21b0:	e1d720f0 	ldrsh	r2, [r7]
    21b4:	ebffffa4 	bl	204c <plot_pixel>
    21b8:	ea000017 	b	221c <draw_background+0xe4>
            } else{    
                if (map_num != 1 && y >= 203){ //to speed up drawing
    21bc:	e59b3000 	ldr	r3, [r11]
    21c0:	e3530001 	cmp	r3, #1
    21c4:	0a000002 	beq	21d4 <draw_background+0x9c>
    21c8:	e35400ca 	cmp	r4, #202	; 0xca
    21cc:	da000005 	ble	21e8 <draw_background+0xb0>
    21d0:	ea00001a 	b	2240 <draw_background+0x108>
                    break;
                }           
                if (map_num == 1)
                    plot_pixel(x, y, background[y * SCREEN_WIDTH + x]);
    21d4:	e59d0004 	ldr	r0, [sp, #4]
    21d8:	e1a01004 	mov	r1, r4
    21dc:	e1da20f0 	ldrsh	r2, [r10]
    21e0:	ebffff99 	bl	204c <plot_pixel>
    21e4:	ea00000c 	b	221c <draw_background+0xe4>
                else if (map_num == 2)
    21e8:	e3530002 	cmp	r3, #2
    21ec:	1a000004 	bne	2204 <draw_background+0xcc>
                    plot_pixel(x, y, background2[y * SCREEN_WIDTH + x]);
    21f0:	e59d0004 	ldr	r0, [sp, #4]
    21f4:	e1a01004 	mov	r1, r4
    21f8:	e1d920f0 	ldrsh	r2, [r9]
    21fc:	ebffff92 	bl	204c <plot_pixel>
    2200:	ea000005 	b	221c <draw_background+0xe4>
                else if (map_num == 3)
    2204:	e3530003 	cmp	r3, #3
                    plot_pixel(x, y, end[y * SCREEN_WIDTH + x]);
    2208:	e59d0004 	ldr	r0, [sp, #4]
    220c:	e1a01004 	mov	r1, r4
    2210:	01d820f0 	ldrsheq	r2, [r8]
                else
                    plot_pixel(x, y, 0);
    2214:	13a02000 	movne	r2, #0
    2218:	ebffff8b 	bl	204c <plot_pixel>

//helper function to draw any background
void draw_background(){
    for (int x = 0; x < SCREEN_WIDTH; ++x)
    {
        for (int y = 0; y <= SCREEN_HEIGHT; ++y)
    221c:	e2844001 	add	r4, r4, #1
    2220:	e2855c05 	add	r5, r5, #1280	; 0x500
    2224:	e2866c05 	add	r6, r6, #1280	; 0x500
    2228:	e2877c05 	add	r7, r7, #1280	; 0x500
    222c:	e28aac05 	add	r10, r10, #1280	; 0x500
    2230:	e2899c05 	add	r9, r9, #1280	; 0x500
    2234:	e2888c05 	add	r8, r8, #1280	; 0x500
    2238:	e35400f1 	cmp	r4, #241	; 0xf1
    223c:	1affffc4 	bne	2154 <draw_background+0x1c>
    return;
}

//helper function to draw any background
void draw_background(){
    for (int x = 0; x < SCREEN_WIDTH; ++x)
    2240:	e59d3004 	ldr	r3, [sp, #4]
    2244:	e2833001 	add	r3, r3, #1
    2248:	e58d3004 	str	r3, [sp, #4]
    224c:	e3530d05 	cmp	r3, #320	; 0x140
    2250:	0a000012 	beq	22a0 <draw_background+0x168>
    }
    return;
}

//helper function to draw any background
void draw_background(){
    2254:	e59d2004 	ldr	r2, [sp, #4]
    2258:	e1a08102 	lsl	r8, r2, #2
    225c:	e59f3044 	ldr	r3, [pc, #68]	; 22a8 <draw_background+0x170>
    2260:	e0835008 	add	r5, r3, r8
    2264:	e59f2040 	ldr	r2, [pc, #64]	; 22ac <draw_background+0x174>
    2268:	e0826008 	add	r6, r2, r8
    226c:	e59f303c 	ldr	r3, [pc, #60]	; 22b0 <draw_background+0x178>
    2270:	e0837008 	add	r7, r3, r8
    2274:	e59f2038 	ldr	r2, [pc, #56]	; 22b4 <draw_background+0x17c>
    2278:	e082a008 	add	r10, r2, r8
    227c:	e59f3034 	ldr	r3, [pc, #52]	; 22b8 <draw_background+0x180>
    2280:	e0839008 	add	r9, r3, r8
    2284:	e59f2030 	ldr	r2, [pc, #48]	; 22bc <draw_background+0x184>
    2288:	e0828008 	add	r8, r2, r8
    228c:	e3a04000 	mov	r4, #0
    {
        for (int y = 0; y <= SCREEN_HEIGHT; ++y)
        {
            if (isFirstTime){
                plot_pixel(x, y, open[y * SCREEN_WIDTH + x]);
            } else if (isGameOver){ //check whether the game is over
    2290:	e30e3134 	movw	r3, #57652	; 0xe134
    2294:	e340301c 	movt	r3, #28
    2298:	e58d3000 	str	r3, [sp]
    229c:	eaffffac 	b	2154 <draw_background+0x1c>
                    plot_pixel(x, y, 0);
            }
            
        }
    }
}
    22a0:	e28dd00c 	add	sp, sp, #12
    22a4:	e8bd8ff0 	pop	{r4, r5, r6, r7, r8, r9, r10, r11, pc}
    22a8:	00003eb8 	.word	0x00003eb8
    22ac:	0004eeb8 	.word	0x0004eeb8
    22b0:	00099eb8 	.word	0x00099eb8
    22b4:	000e4eb8 	.word	0x000e4eb8
    22b8:	0012feb8 	.word	0x0012feb8
    22bc:	0017aeb8 	.word	0x0017aeb8

000022c0 <plot_digit>:
{
    *(short int *)(pixel_buffer_start + (y << 10) + (x << 1)) = line_color;
}

void plot_digit(int x, int y, int ascii){
    *(short int *)(character_buffer_start + (y << 7) + x) = ascii;
    22c0:	e30e3134 	movw	r3, #57652	; 0xe134
    22c4:	e340301c 	movt	r3, #28
    22c8:	e5933020 	ldr	r3, [r3, #32]
    22cc:	e0801381 	add	r1, r0, r1, lsl #7
    22d0:	e18120b3 	strh	r2, [r1, r3]
    22d4:	e12fff1e 	bx	lr

000022d8 <clear_screen>:
}

//function to clear whole screen
void clear_screen(){
    22d8:	e92d4070 	push	{r4, r5, r6, lr}
    //set color for every pixel to black
    for (int x = 0; x <= 319; ++x){
    22dc:	e3a05000 	mov	r5, #0
void plot_digit(int x, int y, int ascii){
    *(short int *)(character_buffer_start + (y << 7) + x) = ascii;
}

//function to clear whole screen
void clear_screen(){
    22e0:	e1a06005 	mov	r6, r5
    22e4:	ea000009 	b	2310 <clear_screen+0x38>
    //set color for every pixel to black
    for (int x = 0; x <= 319; ++x){
        for (int y = 0; y <= 239; ++y){
            plot_pixel(x, y, 0x0);
    22e8:	e1a00005 	mov	r0, r5
    22ec:	e1a01004 	mov	r1, r4
    22f0:	e1a02006 	mov	r2, r6
    22f4:	ebffff54 	bl	204c <plot_pixel>

//function to clear whole screen
void clear_screen(){
    //set color for every pixel to black
    for (int x = 0; x <= 319; ++x){
        for (int y = 0; y <= 239; ++y){
    22f8:	e2844001 	add	r4, r4, #1
    22fc:	e35400f0 	cmp	r4, #240	; 0xf0
    2300:	1afffff8 	bne	22e8 <clear_screen+0x10>
}

//function to clear whole screen
void clear_screen(){
    //set color for every pixel to black
    for (int x = 0; x <= 319; ++x){
    2304:	e2855001 	add	r5, r5, #1
    2308:	e3550d05 	cmp	r5, #320	; 0x140
    230c:	08bd8070 	popeq	{r4, r5, r6, pc}
void plot_digit(int x, int y, int ascii){
    *(short int *)(character_buffer_start + (y << 7) + x) = ascii;
}

//function to clear whole screen
void clear_screen(){
    2310:	e1a04006 	mov	r4, r6
    2314:	eafffff3 	b	22e8 <clear_screen+0x10>

00002318 <swap>:
    }
}

//function to swap two values
void swap(int* a, int* b){
    int temp = *a;
    2318:	e5903000 	ldr	r3, [r0]
    *a = *b;
    231c:	e5912000 	ldr	r2, [r1]
    2320:	e5802000 	str	r2, [r0]
    *b = temp;
    2324:	e5813000 	str	r3, [r1]
    2328:	e12fff1e 	bx	lr

0000232c <draw_line>:
        }
    }
}

//function to draw a line
void draw_line(int x0, int y0, int x1, int y1, short int line_color){
    232c:	e92d4ff0 	push	{r4, r5, r6, r7, r8, r9, r10, r11, lr}
    2330:	e24dd01c 	sub	sp, sp, #28
    2334:	e58d0014 	str	r0, [sp, #20]
    2338:	e58d1010 	str	r1, [sp, #16]
    233c:	e58d200c 	str	r2, [sp, #12]
    2340:	e58d3008 	str	r3, [sp, #8]
    2344:	e1dda4f0 	ldrsh	r10, [sp, #64]	; 0x40
    bool isSteep = abs(y1 - y0) > abs(x1 - x0);
    2348:	e0613003 	rsb	r3, r1, r3
    234c:	e3530000 	cmp	r3, #0
    2350:	b2633000 	rsblt	r3, r3, #0
    2354:	e0602002 	rsb	r2, r0, r2
    2358:	e0228fc2 	eor	r8, r2, r2, asr #31
    235c:	e0488fc2 	sub	r8, r8, r2, asr #31
    2360:	e1530008 	cmp	r3, r8
    2364:	d3a08000 	movle	r8, #0
    2368:	c3a08001 	movgt	r8, #1
    if (isSteep){
    236c:	e3580000 	cmp	r8, #0
    2370:	0a000005 	beq	238c <draw_line+0x60>
        swap(&x0, &y0);
    2374:	e28d0014 	add	r0, sp, #20
    2378:	e28d1010 	add	r1, sp, #16
    237c:	ebffffe5 	bl	2318 <swap>
        swap(&x1, &y1);
    2380:	e28d000c 	add	r0, sp, #12
    2384:	e28d1008 	add	r1, sp, #8
    2388:	ebffffe2 	bl	2318 <swap>
    }
    if (x0 > x1){
    238c:	e59d300c 	ldr	r3, [sp, #12]
    2390:	e59d2014 	ldr	r2, [sp, #20]
    2394:	e1520003 	cmp	r2, r3
    2398:	da000005 	ble	23b4 <draw_line+0x88>
        swap(&x0, &x1);
    239c:	e28d0014 	add	r0, sp, #20
    23a0:	e28d100c 	add	r1, sp, #12
    23a4:	ebffffdb 	bl	2318 <swap>
        swap(&y0, &y1);
    23a8:	e28d0010 	add	r0, sp, #16
    23ac:	e28d1008 	add	r1, sp, #8
    23b0:	ebffffd8 	bl	2318 <swap>
    }

    int deltax = x1 - x0;
    23b4:	e59d300c 	ldr	r3, [sp, #12]
    23b8:	e58d3004 	str	r3, [sp, #4]
    23bc:	e59d5014 	ldr	r5, [sp, #20]
    23c0:	e0659003 	rsb	r9, r5, r3
    int deltay = abs(y1 - y0);
    23c4:	e59db008 	ldr	r11, [sp, #8]
    23c8:	e59d6010 	ldr	r6, [sp, #16]
    23cc:	e066700b 	rsb	r7, r6, r11
    23d0:	e3570000 	cmp	r7, #0
    23d4:	b2677000 	rsblt	r7, r7, #0
    int error = -1 * (deltax * 0.5);
    23d8:	e1a00009 	mov	r0, r9
    23dc:	eb000397 	bl	3240 <__aeabi_i2d>
    23e0:	e3a02000 	mov	r2, #0
    23e4:	e3a03000 	mov	r3, #0
    23e8:	e3433fe0 	movt	r3, #16352	; 0x3fe0
    23ec:	eb0003ca 	bl	331c <__aeabi_dmul>
    23f0:	e2813102 	add	r3, r1, #-2147483648	; 0x80000000
    23f4:	e1a01003 	mov	r1, r3
    23f8:	eb00053f 	bl	38fc <__aeabi_d2iz>
    23fc:	e1a04000 	mov	r4, r0
    int y = y0;
    int y_step;
    if (y0 < y1){
        y_step = 1;
    2400:	e15b0006 	cmp	r11, r6
    2404:	d3e0b000 	mvnle	r11, #0
    2408:	c3a0b001 	movgt	r11, #1
    } else{
        y_step = -1;
    }

    for (int x = x0; x <= x1; ++x){
    240c:	e59d3004 	ldr	r3, [sp, #4]
    2410:	e1530005 	cmp	r3, r5
    2414:	ba00000d 	blt	2450 <draw_line+0x124>
        if (isSteep){
    2418:	e3580000 	cmp	r8, #0
            plot_pixel(y, x, line_color);
    241c:	11a00006 	movne	r0, r6
    2420:	11a01005 	movne	r1, r5
        } else{
            plot_pixel(x, y, line_color);
    2424:	01a00005 	moveq	r0, r5
    2428:	01a01006 	moveq	r1, r6
    242c:	e1a0200a 	mov	r2, r10
    2430:	ebffff05 	bl	204c <plot_pixel>
        }
        error = error + deltay;
        if (error >= 0){
    2434:	e0944007 	adds	r4, r4, r7
            y = y + y_step;
    2438:	5086600b 	addpl	r6, r6, r11
            error = error - deltax;
    243c:	50694004 	rsbpl	r4, r9, r4
        y_step = 1;
    } else{
        y_step = -1;
    }

    for (int x = x0; x <= x1; ++x){
    2440:	e2855001 	add	r5, r5, #1
    2444:	e59d300c 	ldr	r3, [sp, #12]
    2448:	e1530005 	cmp	r3, r5
    244c:	aafffff1 	bge	2418 <draw_line+0xec>
        if (error >= 0){
            y = y + y_step;
            error = error - deltax;
        }
    }
}
    2450:	e28dd01c 	add	sp, sp, #28
    2454:	e8bd8ff0 	pop	{r4, r5, r6, r7, r8, r9, r10, r11, pc}

00002458 <wait_for_vsync>:
//function to wait for Vsync
void wait_for_vsync(){
     volatile int *pixel_ctrl_ptr = (int *)0xFF203020;
     register int status;

     *pixel_ctrl_ptr = 1;
    2458:	e3033fff 	movw	r3, #16383	; 0x3fff
    245c:	e34f3f20 	movt	r3, #65312	; 0xff20
    2460:	e3a02001 	mov	r2, #1
    2464:	e5032fdf 	str	r2, [r3, #-4063]	; 0xfffff021

     status = *(pixel_ctrl_ptr + 3);
    2468:	e5133fd3 	ldr	r3, [r3, #-4051]	; 0xfffff02d
     while ((status & 0x01) != 0){
    246c:	e3130001 	tst	r3, #1
    2470:	012fff1e 	bxeq	lr
         status = *(pixel_ctrl_ptr + 3);
    2474:	e3032fff 	movw	r2, #16383	; 0x3fff
    2478:	e34f2f20 	movt	r2, #65312	; 0xff20
    247c:	e5123fd3 	ldr	r3, [r2, #-4051]	; 0xfffff02d
     register int status;

     *pixel_ctrl_ptr = 1;

     status = *(pixel_ctrl_ptr + 3);
     while ((status & 0x01) != 0){
    2480:	e3130001 	tst	r3, #1
    2484:	1afffffc 	bne	247c <wait_for_vsync+0x24>
    2488:	e12fff1e 	bx	lr

0000248c <draw_scores>:
         status = *(pixel_ctrl_ptr + 3);
     }
}
	
//helper function to darw all scores
void draw_scores(){
    248c:	e92d4070 	push	{r4, r5, r6, lr}
    2490:	e24dd030 	sub	sp, sp, #48	; 0x30
    int ones, tens, hundreds;
    //set an array, easy to get wanted value
    int *num[] = {zero, one, two, three, four, five, six, seven, eight, nine};
    2494:	e28de008 	add	lr, sp, #8
    2498:	e303cd78 	movw	r12, #15736	; 0x3d78
    249c:	e340c000 	movt	r12, #0
    24a0:	e8bc000f 	ldm	r12!, {r0, r1, r2, r3}
    24a4:	e8ae000f 	stmia	lr!, {r0, r1, r2, r3}
    24a8:	e8bc000f 	ldm	r12!, {r0, r1, r2, r3}
    24ac:	e8ae000f 	stmia	lr!, {r0, r1, r2, r3}
    24b0:	e89c0003 	ldm	r12, {r0, r1}
    24b4:	e88e0003 	stm	lr, {r0, r1}

    //draw score
    ones = score % 10;
    24b8:	e30e3134 	movw	r3, #57652	; 0xe134
    24bc:	e340301c 	movt	r3, #28
    24c0:	e5931000 	ldr	r1, [r3]
    24c4:	e3062667 	movw	r2, #26215	; 0x6667
    24c8:	e3462666 	movt	r2, #26214	; 0x6666
    24cc:	e0c40192 	smull	r0, r4, r2, r1
    24d0:	e1a03fc1 	asr	r3, r1, #31
    24d4:	e0634144 	rsb	r4, r3, r4, asr #2
    24d8:	e1a03004 	mov	r3, r4
    24dc:	e0844104 	add	r4, r4, r4, lsl #2
    24e0:	e0414084 	sub	r4, r1, r4, lsl #1
    tens = score / 10 % 10;
    24e4:	e0c21392 	smull	r1, r2, r2, r3
    24e8:	e1a01fc3 	asr	r1, r3, #31
    24ec:	e0612142 	rsb	r2, r1, r2, asr #2
    24f0:	e0822102 	add	r2, r2, r2, lsl #2
    if (tens != 0){
    24f4:	e0532082 	subs	r2, r3, r2, lsl #1
    24f8:	0a000011 	beq	2544 <draw_scores+0xb8>
        draw_image(15, 23, num[tens], 15, 15);
    24fc:	e28d3030 	add	r3, sp, #48	; 0x30
    2500:	e0832102 	add	r2, r3, r2, lsl #2
    2504:	e5122028 	ldr	r2, [r2, #-40]	; 0xffffffd8
    2508:	e3a0500f 	mov	r5, #15
    250c:	e58d5000 	str	r5, [sp]
    2510:	e1a00005 	mov	r0, r5
    2514:	e3a01017 	mov	r1, #23
    2518:	e1a03005 	mov	r3, r5
    251c:	ebfffed1 	bl	2068 <draw_image>
        draw_image(15 + 15, 23, num[ones], 15, 15);
    2520:	e28d0030 	add	r0, sp, #48	; 0x30
    2524:	e0804104 	add	r4, r0, r4, lsl #2
    2528:	e5142028 	ldr	r2, [r4, #-40]	; 0xffffffd8
    252c:	e58d5000 	str	r5, [sp]
    2530:	e3a0001e 	mov	r0, #30
    2534:	e3a01017 	mov	r1, #23
    2538:	e1a03005 	mov	r3, r5
    253c:	ebfffec9 	bl	2068 <draw_image>
    2540:	ea000007 	b	2564 <draw_scores+0xd8>
    } else{
        draw_image(20, 23, num[ones], 15, 15);
    2544:	e28d1030 	add	r1, sp, #48	; 0x30
    2548:	e0814104 	add	r4, r1, r4, lsl #2
    254c:	e5142028 	ldr	r2, [r4, #-40]	; 0xffffffd8
    2550:	e3a0300f 	mov	r3, #15
    2554:	e58d3000 	str	r3, [sp]
    2558:	e3a00014 	mov	r0, #20
    255c:	e3a01017 	mov	r1, #23
    2560:	ebfffec0 	bl	2068 <draw_image>
    }
    

    //draw world
    draw_image(98, 23, num[map_num], 15, 15);
    2564:	e3035e00 	movw	r5, #15872	; 0x3e00
    2568:	e3405000 	movt	r5, #0
    256c:	e5953000 	ldr	r3, [r5]
    2570:	e28d2030 	add	r2, sp, #48	; 0x30
    2574:	e0823103 	add	r3, r2, r3, lsl #2
    2578:	e5132028 	ldr	r2, [r3, #-40]	; 0xffffffd8
    257c:	e3a0400f 	mov	r4, #15
    2580:	e58d4000 	str	r4, [sp]
    2584:	e3a00062 	mov	r0, #98	; 0x62
    2588:	e3a01017 	mov	r1, #23
    258c:	e1a03004 	mov	r3, r4
    2590:	ebfffeb4 	bl	2068 <draw_image>
    draw_image(98 + 15, 27, dash, 8, 15);
    2594:	e58d4000 	str	r4, [sp]
    2598:	e3a00071 	mov	r0, #113	; 0x71
    259c:	e3a0101b 	mov	r1, #27
    25a0:	e59f2654 	ldr	r2, [pc, #1620]	; 2bfc <draw_scores+0x770>
    25a4:	e3a03008 	mov	r3, #8
    25a8:	ebfffeae 	bl	2068 <draw_image>
    draw_image(98 + 15 + 8, 23, num[3], 15, 15);
    25ac:	e58d4000 	str	r4, [sp]
    25b0:	e3a00079 	mov	r0, #121	; 0x79
    25b4:	e3a01017 	mov	r1, #23
    25b8:	e59d2014 	ldr	r2, [sp, #20]
    25bc:	e1a03004 	mov	r3, r4
    25c0:	ebfffea8 	bl	2068 <draw_image>

    //draw time
    ones = time_left % 10;
    25c4:	e5953008 	ldr	r3, [r5, #8]
    25c8:	e3065667 	movw	r5, #26215	; 0x6667
    25cc:	e3465666 	movt	r5, #26214	; 0x6666
    25d0:	e0c40395 	smull	r0, r4, r5, r3
    25d4:	e1a02fc3 	asr	r2, r3, #31
    25d8:	e0624144 	rsb	r4, r2, r4, asr #2
    25dc:	e1a01004 	mov	r1, r4
    25e0:	e0844104 	add	r4, r4, r4, lsl #2
    25e4:	e0434084 	sub	r4, r3, r4, lsl #1
    tens = time_left / 10 % 10;
    25e8:	e0c50195 	smull	r0, r5, r5, r1
    25ec:	e1a00fc1 	asr	r0, r1, #31
    25f0:	e0605145 	rsb	r5, r0, r5, asr #2
    25f4:	e0855105 	add	r5, r5, r5, lsl #2
    25f8:	e0415085 	sub	r5, r1, r5, lsl #1
    hundreds = time_left / 100;
    25fc:	e308151f 	movw	r1, #34079	; 0x851f
    2600:	e34511eb 	movt	r1, #20971	; 0x51eb
    2604:	e0c30391 	smull	r0, r3, r1, r3
    if (hundreds != 0){
    2608:	e07232c3 	rsbs	r3, r2, r3, asr #5
    260c:	0a000019 	beq	2678 <draw_scores+0x1ec>
        draw_image(187, 23, num[hundreds], 15, 15);
    2610:	e28d1030 	add	r1, sp, #48	; 0x30
    2614:	e0813103 	add	r3, r1, r3, lsl #2
    2618:	e5132028 	ldr	r2, [r3, #-40]	; 0xffffffd8
    261c:	e3a0600f 	mov	r6, #15
    2620:	e58d6000 	str	r6, [sp]
    2624:	e3a000bb 	mov	r0, #187	; 0xbb
    2628:	e3a01017 	mov	r1, #23
    262c:	e1a03006 	mov	r3, r6
    2630:	ebfffe8c 	bl	2068 <draw_image>
        draw_image(187 + 15, 23, num[tens], 15, 15);
    2634:	e28d2030 	add	r2, sp, #48	; 0x30
    2638:	e0825105 	add	r5, r2, r5, lsl #2
    263c:	e5152028 	ldr	r2, [r5, #-40]	; 0xffffffd8
    2640:	e58d6000 	str	r6, [sp]
    2644:	e3a000ca 	mov	r0, #202	; 0xca
    2648:	e3a01017 	mov	r1, #23
    264c:	e1a03006 	mov	r3, r6
    2650:	ebfffe84 	bl	2068 <draw_image>
        draw_image(187 + 15 + 15, 23, num[ones], 15, 15);
    2654:	e28d3030 	add	r3, sp, #48	; 0x30
    2658:	e0834104 	add	r4, r3, r4, lsl #2
    265c:	e5142028 	ldr	r2, [r4, #-40]	; 0xffffffd8
    2660:	e58d6000 	str	r6, [sp]
    2664:	e3a000d9 	mov	r0, #217	; 0xd9
    2668:	e3a01017 	mov	r1, #23
    266c:	e1a03006 	mov	r3, r6
    2670:	ebfffe7c 	bl	2068 <draw_image>
    2674:	ea00001b 	b	26e8 <draw_scores+0x25c>
    } else if (tens != 0){
    2678:	e3550000 	cmp	r5, #0
    267c:	0a000011 	beq	26c8 <draw_scores+0x23c>
        draw_image(192, 23, num[tens], 15, 15);
    2680:	e28d0030 	add	r0, sp, #48	; 0x30
    2684:	e0805105 	add	r5, r0, r5, lsl #2
    2688:	e5152028 	ldr	r2, [r5, #-40]	; 0xffffffd8
    268c:	e3a0500f 	mov	r5, #15
    2690:	e58d5000 	str	r5, [sp]
    2694:	e3a000c0 	mov	r0, #192	; 0xc0
    2698:	e3a01017 	mov	r1, #23
    269c:	e1a03005 	mov	r3, r5
    26a0:	ebfffe70 	bl	2068 <draw_image>
        draw_image(192 + 15, 23, num[ones], 15, 15);
    26a4:	e28d1030 	add	r1, sp, #48	; 0x30
    26a8:	e0814104 	add	r4, r1, r4, lsl #2
    26ac:	e5142028 	ldr	r2, [r4, #-40]	; 0xffffffd8
    26b0:	e58d5000 	str	r5, [sp]
    26b4:	e3a000cf 	mov	r0, #207	; 0xcf
    26b8:	e3a01017 	mov	r1, #23
    26bc:	e1a03005 	mov	r3, r5
    26c0:	ebfffe68 	bl	2068 <draw_image>
    26c4:	ea000007 	b	26e8 <draw_scores+0x25c>
    } else{
        draw_image(202, 23, num[ones], 15, 15);
    26c8:	e28d2030 	add	r2, sp, #48	; 0x30
    26cc:	e0824104 	add	r4, r2, r4, lsl #2
    26d0:	e5142028 	ldr	r2, [r4, #-40]	; 0xffffffd8
    26d4:	e3a0300f 	mov	r3, #15
    26d8:	e58d3000 	str	r3, [sp]
    26dc:	e3a000ca 	mov	r0, #202	; 0xca
    26e0:	e3a01017 	mov	r1, #23
    26e4:	ebfffe5f 	bl	2068 <draw_image>
    }

    //draw lives
    if (lives < 0){
    26e8:	e3033e00 	movw	r3, #15872	; 0x3e00
    26ec:	e3403000 	movt	r3, #0
    26f0:	e5933004 	ldr	r3, [r3, #4]
    26f4:	e3530000 	cmp	r3, #0
        lives = 0;
    26f8:	b3033e00 	movwlt	r3, #15872	; 0x3e00
    26fc:	b3403000 	movtlt	r3, #0
    2700:	b3a02000 	movlt	r2, #0
    2704:	b5832004 	strlt	r2, [r3, #4]
    }
    draw_image(284, 23, num[lives], 15, 15);
    2708:	e3033e00 	movw	r3, #15872	; 0x3e00
    270c:	e3403000 	movt	r3, #0
    2710:	e5933004 	ldr	r3, [r3, #4]
    2714:	e28d0030 	add	r0, sp, #48	; 0x30
    2718:	e0803103 	add	r3, r0, r3, lsl #2
    271c:	e5132028 	ldr	r2, [r3, #-40]	; 0xffffffd8
    2720:	e3a0300f 	mov	r3, #15
    2724:	e58d3000 	str	r3, [sp]
    2728:	e3a00f47 	mov	r0, #284	; 0x11c
    272c:	e3a01017 	mov	r1, #23
    2730:	ebfffe4c 	bl	2068 <draw_image>


    //draw scores if game is over
    if (isGameOver){
    2734:	e30e3134 	movw	r3, #57652	; 0xe134
    2738:	e340301c 	movt	r3, #28
    273c:	e5d33011 	ldrb	r3, [r3, #17]
    2740:	e3530000 	cmp	r3, #0
    2744:	0a000089 	beq	2970 <draw_scores+0x4e4>
        //draw best time
        ones = best_time % 10;
    2748:	e30536f8 	movw	r3, #22264	; 0x56f8
    274c:	e340301c 	movt	r3, #28
    2750:	e59339a0 	ldr	r3, [r3, #2464]	; 0x9a0
    2754:	e3065667 	movw	r5, #26215	; 0x6667
    2758:	e3465666 	movt	r5, #26214	; 0x6666
    275c:	e0c41395 	smull	r1, r4, r5, r3
    2760:	e1a02fc3 	asr	r2, r3, #31
    2764:	e0624144 	rsb	r4, r2, r4, asr #2
    2768:	e1a01004 	mov	r1, r4
    276c:	e0844104 	add	r4, r4, r4, lsl #2
    2770:	e0434084 	sub	r4, r3, r4, lsl #1
        tens = best_time / 10 % 10;
    2774:	e0c50195 	smull	r0, r5, r5, r1
    2778:	e1a00fc1 	asr	r0, r1, #31
    277c:	e0605145 	rsb	r5, r0, r5, asr #2
    2780:	e0855105 	add	r5, r5, r5, lsl #2
    2784:	e0415085 	sub	r5, r1, r5, lsl #1
        hundreds = best_time / 100;
    2788:	e308151f 	movw	r1, #34079	; 0x851f
    278c:	e34511eb 	movt	r1, #20971	; 0x51eb
    2790:	e0c30391 	smull	r0, r3, r1, r3
        if (hundreds != 0){
    2794:	e07232c3 	rsbs	r3, r2, r3, asr #5
    2798:	0a00001f 	beq	281c <draw_scores+0x390>
            draw_image(115, 97, num[hundreds], 15, 15);
    279c:	e28d1030 	add	r1, sp, #48	; 0x30
    27a0:	e0813103 	add	r3, r1, r3, lsl #2
    27a4:	e5132028 	ldr	r2, [r3, #-40]	; 0xffffffd8
    27a8:	e3a0600f 	mov	r6, #15
    27ac:	e58d6000 	str	r6, [sp]
    27b0:	e3a00073 	mov	r0, #115	; 0x73
    27b4:	e3a01061 	mov	r1, #97	; 0x61
    27b8:	e1a03006 	mov	r3, r6
    27bc:	ebfffe29 	bl	2068 <draw_image>
            draw_image(115 + 15, 97, num[tens], 15, 15);
    27c0:	e28d2030 	add	r2, sp, #48	; 0x30
    27c4:	e0825105 	add	r5, r2, r5, lsl #2
    27c8:	e5152028 	ldr	r2, [r5, #-40]	; 0xffffffd8
    27cc:	e58d6000 	str	r6, [sp]
    27d0:	e3a00082 	mov	r0, #130	; 0x82
    27d4:	e3a01061 	mov	r1, #97	; 0x61
    27d8:	e1a03006 	mov	r3, r6
    27dc:	ebfffe21 	bl	2068 <draw_image>
            draw_image(115 + 15 + 15, 97, num[ones], 15, 15);
    27e0:	e28d3030 	add	r3, sp, #48	; 0x30
    27e4:	e0834104 	add	r4, r3, r4, lsl #2
    27e8:	e5142028 	ldr	r2, [r4, #-40]	; 0xffffffd8
    27ec:	e58d6000 	str	r6, [sp]
    27f0:	e3a00091 	mov	r0, #145	; 0x91
    27f4:	e3a01061 	mov	r1, #97	; 0x61
    27f8:	e1a03006 	mov	r3, r6
    27fc:	ebfffe19 	bl	2068 <draw_image>
            draw_image(115 + 15 + 15 + 15, 97, sec, 30, 15);
    2800:	e58d6000 	str	r6, [sp]
    2804:	e3a000a0 	mov	r0, #160	; 0xa0
    2808:	e3a01061 	mov	r1, #97	; 0x61
    280c:	e59f23ec 	ldr	r2, [pc, #1004]	; 2c00 <draw_scores+0x774>
    2810:	e3a0301e 	mov	r3, #30
    2814:	ebfffe13 	bl	2068 <draw_image>
    2818:	ea000028 	b	28c0 <draw_scores+0x434>
        } else if (tens != 0){
    281c:	e3550000 	cmp	r5, #0
    2820:	0a000017 	beq	2884 <draw_scores+0x3f8>
            draw_image(115, 97, num[tens], 15, 15);
    2824:	e28d0030 	add	r0, sp, #48	; 0x30
    2828:	e0805105 	add	r5, r0, r5, lsl #2
    282c:	e5152028 	ldr	r2, [r5, #-40]	; 0xffffffd8
    2830:	e3a0500f 	mov	r5, #15
    2834:	e58d5000 	str	r5, [sp]
    2838:	e3a00073 	mov	r0, #115	; 0x73
    283c:	e3a01061 	mov	r1, #97	; 0x61
    2840:	e1a03005 	mov	r3, r5
    2844:	ebfffe07 	bl	2068 <draw_image>
            draw_image(115 + 15, 97, num[ones], 15, 15);
    2848:	e28d1030 	add	r1, sp, #48	; 0x30
    284c:	e0814104 	add	r4, r1, r4, lsl #2
    2850:	e5142028 	ldr	r2, [r4, #-40]	; 0xffffffd8
    2854:	e58d5000 	str	r5, [sp]
    2858:	e3a00082 	mov	r0, #130	; 0x82
    285c:	e3a01061 	mov	r1, #97	; 0x61
    2860:	e1a03005 	mov	r3, r5
    2864:	ebfffdff 	bl	2068 <draw_image>
            draw_image(115 + 15 + 15, 97, sec, 30, 15);
    2868:	e58d5000 	str	r5, [sp]
    286c:	e3a00091 	mov	r0, #145	; 0x91
    2870:	e3a01061 	mov	r1, #97	; 0x61
    2874:	e59f2384 	ldr	r2, [pc, #900]	; 2c00 <draw_scores+0x774>
    2878:	e3a0301e 	mov	r3, #30
    287c:	ebfffdf9 	bl	2068 <draw_image>
    2880:	ea00000e 	b	28c0 <draw_scores+0x434>
        } else{
            draw_image(115, 97, num[ones], 15, 15);
    2884:	e28d2030 	add	r2, sp, #48	; 0x30
    2888:	e0824104 	add	r4, r2, r4, lsl #2
    288c:	e5142028 	ldr	r2, [r4, #-40]	; 0xffffffd8
    2890:	e3a0400f 	mov	r4, #15
    2894:	e58d4000 	str	r4, [sp]
    2898:	e3a00073 	mov	r0, #115	; 0x73
    289c:	e3a01061 	mov	r1, #97	; 0x61
    28a0:	e1a03004 	mov	r3, r4
    28a4:	ebfffdef 	bl	2068 <draw_image>
            draw_image(115 + 15, 97, sec, 30, 15);
    28a8:	e58d4000 	str	r4, [sp]
    28ac:	e3a00082 	mov	r0, #130	; 0x82
    28b0:	e3a01061 	mov	r1, #97	; 0x61
    28b4:	e59f2344 	ldr	r2, [pc, #836]	; 2c00 <draw_scores+0x774>
    28b8:	e3a0301e 	mov	r3, #30
    28bc:	ebfffde9 	bl	2068 <draw_image>
        }

        //draw best score
        ones = hightest_score % 10;
    28c0:	e30e3134 	movw	r3, #57652	; 0xe134
    28c4:	e340301c 	movt	r3, #28
    28c8:	e5931024 	ldr	r1, [r3, #36]	; 0x24
    28cc:	e3062667 	movw	r2, #26215	; 0x6667
    28d0:	e3462666 	movt	r2, #26214	; 0x6666
    28d4:	e0c43192 	smull	r3, r4, r2, r1
    28d8:	e1a03fc1 	asr	r3, r1, #31
    28dc:	e0634144 	rsb	r4, r3, r4, asr #2
    28e0:	e1a03004 	mov	r3, r4
    28e4:	e0844104 	add	r4, r4, r4, lsl #2
    28e8:	e0414084 	sub	r4, r1, r4, lsl #1
        tens = hightest_score / 10 % 10;
    28ec:	e0c20392 	smull	r0, r2, r2, r3
    28f0:	e1a01fc3 	asr	r1, r3, #31
    28f4:	e0612142 	rsb	r2, r1, r2, asr #2
    28f8:	e0822102 	add	r2, r2, r2, lsl #2
        if (tens != 0){
    28fc:	e0532082 	subs	r2, r3, r2, lsl #1
    2900:	0a000011 	beq	294c <draw_scores+0x4c0>
            draw_image(115, 121, num[tens], 15, 15);
    2904:	e28d1030 	add	r1, sp, #48	; 0x30
    2908:	e0812102 	add	r2, r1, r2, lsl #2
    290c:	e5122028 	ldr	r2, [r2, #-40]	; 0xffffffd8
    2910:	e3a0500f 	mov	r5, #15
    2914:	e58d5000 	str	r5, [sp]
    2918:	e3a00073 	mov	r0, #115	; 0x73
    291c:	e3a01079 	mov	r1, #121	; 0x79
    2920:	e1a03005 	mov	r3, r5
    2924:	ebfffdcf 	bl	2068 <draw_image>
            draw_image(115 + 15, 121, num[ones], 15, 15);
    2928:	e28d2030 	add	r2, sp, #48	; 0x30
    292c:	e0824104 	add	r4, r2, r4, lsl #2
    2930:	e5142028 	ldr	r2, [r4, #-40]	; 0xffffffd8
    2934:	e58d5000 	str	r5, [sp]
    2938:	e3a00082 	mov	r0, #130	; 0x82
    293c:	e3a01079 	mov	r1, #121	; 0x79
    2940:	e1a03005 	mov	r3, r5
    2944:	ebfffdc7 	bl	2068 <draw_image>
    2948:	ea0000a9 	b	2bf4 <draw_scores+0x768>
        } else{
            draw_image(115, 121, num[ones], 15, 15);
    294c:	e28d3030 	add	r3, sp, #48	; 0x30
    2950:	e0834104 	add	r4, r3, r4, lsl #2
    2954:	e5142028 	ldr	r2, [r4, #-40]	; 0xffffffd8
    2958:	e3a0300f 	mov	r3, #15
    295c:	e58d3000 	str	r3, [sp]
    2960:	e3a00073 	mov	r0, #115	; 0x73
    2964:	e3a01079 	mov	r1, #121	; 0x79
    2968:	ebfffdbe 	bl	2068 <draw_image>
    296c:	ea0000a0 	b	2bf4 <draw_scores+0x768>
        }
    } else if (isWin){
    2970:	e30e3134 	movw	r3, #57652	; 0xe134
    2974:	e340301c 	movt	r3, #28
    2978:	e5d33010 	ldrb	r3, [r3, #16]
    297c:	e3530000 	cmp	r3, #0
    2980:	0a00009b 	beq	2bf4 <draw_scores+0x768>
        if (score > hightest_score){
    2984:	e30e3134 	movw	r3, #57652	; 0xe134
    2988:	e340301c 	movt	r3, #28
    298c:	e5932000 	ldr	r2, [r3]
    2990:	e5933024 	ldr	r3, [r3, #36]	; 0x24
    2994:	e1520003 	cmp	r2, r3
            hightest_score = score;
    2998:	c30e3134 	movwgt	r3, #57652	; 0xe134
    299c:	c340301c 	movtgt	r3, #28
    29a0:	c5832024 	strgt	r2, [r3, #36]	; 0x24
        }

        int current_time = 200 - time_left;
    29a4:	e3033e00 	movw	r3, #15872	; 0x3e00
    29a8:	e3403000 	movt	r3, #0
    29ac:	e5932008 	ldr	r2, [r3, #8]
    29b0:	e26220c8 	rsb	r2, r2, #200	; 0xc8
        if (current_time < best_time){
    29b4:	e30536f8 	movw	r3, #22264	; 0x56f8
    29b8:	e340301c 	movt	r3, #28
    29bc:	e59339a0 	ldr	r3, [r3, #2464]	; 0x9a0
    29c0:	e1520003 	cmp	r2, r3
            best_time = current_time;
    29c4:	b30536f8 	movwlt	r3, #22264	; 0x56f8
    29c8:	b340301c 	movtlt	r3, #28
    29cc:	b58329a0 	strlt	r2, [r3, #2464]	; 0x9a0
        }

        //draw best time
        ones = best_time % 10;
    29d0:	e30536f8 	movw	r3, #22264	; 0x56f8
    29d4:	e340301c 	movt	r3, #28
    29d8:	e59339a0 	ldr	r3, [r3, #2464]	; 0x9a0
    29dc:	e3065667 	movw	r5, #26215	; 0x6667
    29e0:	e3465666 	movt	r5, #26214	; 0x6666
    29e4:	e0c40395 	smull	r0, r4, r5, r3
    29e8:	e1a02fc3 	asr	r2, r3, #31
    29ec:	e0624144 	rsb	r4, r2, r4, asr #2
    29f0:	e1a01004 	mov	r1, r4
    29f4:	e0844104 	add	r4, r4, r4, lsl #2
    29f8:	e0434084 	sub	r4, r3, r4, lsl #1
        tens = best_time / 10 % 10;
    29fc:	e0c50195 	smull	r0, r5, r5, r1
    2a00:	e1a00fc1 	asr	r0, r1, #31
    2a04:	e0605145 	rsb	r5, r0, r5, asr #2
    2a08:	e0855105 	add	r5, r5, r5, lsl #2
    2a0c:	e0415085 	sub	r5, r1, r5, lsl #1
        hundreds = best_time / 100;
    2a10:	e308151f 	movw	r1, #34079	; 0x851f
    2a14:	e34511eb 	movt	r1, #20971	; 0x51eb
    2a18:	e0c30391 	smull	r0, r3, r1, r3
        if (hundreds != 0){
    2a1c:	e07232c3 	rsbs	r3, r2, r3, asr #5
    2a20:	0a00001f 	beq	2aa4 <draw_scores+0x618>
            draw_image(124, 92, num[hundreds], 15, 15);
    2a24:	e28d1030 	add	r1, sp, #48	; 0x30
    2a28:	e0813103 	add	r3, r1, r3, lsl #2
    2a2c:	e5132028 	ldr	r2, [r3, #-40]	; 0xffffffd8
    2a30:	e3a0600f 	mov	r6, #15
    2a34:	e58d6000 	str	r6, [sp]
    2a38:	e3a0007c 	mov	r0, #124	; 0x7c
    2a3c:	e3a0105c 	mov	r1, #92	; 0x5c
    2a40:	e1a03006 	mov	r3, r6
    2a44:	ebfffd87 	bl	2068 <draw_image>
            draw_image(124 + 15, 92, num[tens], 15, 15);
    2a48:	e28d2030 	add	r2, sp, #48	; 0x30
    2a4c:	e0825105 	add	r5, r2, r5, lsl #2
    2a50:	e5152028 	ldr	r2, [r5, #-40]	; 0xffffffd8
    2a54:	e58d6000 	str	r6, [sp]
    2a58:	e3a0008b 	mov	r0, #139	; 0x8b
    2a5c:	e3a0105c 	mov	r1, #92	; 0x5c
    2a60:	e1a03006 	mov	r3, r6
    2a64:	ebfffd7f 	bl	2068 <draw_image>
            draw_image(124 + 15 + 15, 92, num[ones], 15, 15);
    2a68:	e28d3030 	add	r3, sp, #48	; 0x30
    2a6c:	e0834104 	add	r4, r3, r4, lsl #2
    2a70:	e5142028 	ldr	r2, [r4, #-40]	; 0xffffffd8
    2a74:	e58d6000 	str	r6, [sp]
    2a78:	e3a0009a 	mov	r0, #154	; 0x9a
    2a7c:	e3a0105c 	mov	r1, #92	; 0x5c
    2a80:	e1a03006 	mov	r3, r6
    2a84:	ebfffd77 	bl	2068 <draw_image>
            draw_image(124 + 15 + 15 + 15, 92, sec, 30, 15);
    2a88:	e58d6000 	str	r6, [sp]
    2a8c:	e3a000a9 	mov	r0, #169	; 0xa9
    2a90:	e3a0105c 	mov	r1, #92	; 0x5c
    2a94:	e59f2164 	ldr	r2, [pc, #356]	; 2c00 <draw_scores+0x774>
    2a98:	e3a0301e 	mov	r3, #30
    2a9c:	ebfffd71 	bl	2068 <draw_image>
    2aa0:	ea000028 	b	2b48 <draw_scores+0x6bc>
        } else if (tens != 0){
    2aa4:	e3550000 	cmp	r5, #0
    2aa8:	0a000017 	beq	2b0c <draw_scores+0x680>
            draw_image(124, 92, num[tens], 15, 15);
    2aac:	e28d0030 	add	r0, sp, #48	; 0x30
    2ab0:	e0805105 	add	r5, r0, r5, lsl #2
    2ab4:	e5152028 	ldr	r2, [r5, #-40]	; 0xffffffd8
    2ab8:	e3a0500f 	mov	r5, #15
    2abc:	e58d5000 	str	r5, [sp]
    2ac0:	e3a0007c 	mov	r0, #124	; 0x7c
    2ac4:	e3a0105c 	mov	r1, #92	; 0x5c
    2ac8:	e1a03005 	mov	r3, r5
    2acc:	ebfffd65 	bl	2068 <draw_image>
            draw_image(124 + 15, 92, num[ones], 15, 15);
    2ad0:	e28d1030 	add	r1, sp, #48	; 0x30
    2ad4:	e0814104 	add	r4, r1, r4, lsl #2
    2ad8:	e5142028 	ldr	r2, [r4, #-40]	; 0xffffffd8
    2adc:	e58d5000 	str	r5, [sp]
    2ae0:	e3a0008b 	mov	r0, #139	; 0x8b
    2ae4:	e3a0105c 	mov	r1, #92	; 0x5c
    2ae8:	e1a03005 	mov	r3, r5
    2aec:	ebfffd5d 	bl	2068 <draw_image>
            draw_image(124 + 15 + 15, 92, sec, 30, 15);
    2af0:	e58d5000 	str	r5, [sp]
    2af4:	e3a0009a 	mov	r0, #154	; 0x9a
    2af8:	e3a0105c 	mov	r1, #92	; 0x5c
    2afc:	e59f20fc 	ldr	r2, [pc, #252]	; 2c00 <draw_scores+0x774>
    2b00:	e3a0301e 	mov	r3, #30
    2b04:	ebfffd57 	bl	2068 <draw_image>
    2b08:	ea00000e 	b	2b48 <draw_scores+0x6bc>
        } else{
            draw_image(124, 92, num[ones], 15, 15);
    2b0c:	e28d2030 	add	r2, sp, #48	; 0x30
    2b10:	e0824104 	add	r4, r2, r4, lsl #2
    2b14:	e5142028 	ldr	r2, [r4, #-40]	; 0xffffffd8
    2b18:	e3a0400f 	mov	r4, #15
    2b1c:	e58d4000 	str	r4, [sp]
    2b20:	e3a0007c 	mov	r0, #124	; 0x7c
    2b24:	e3a0105c 	mov	r1, #92	; 0x5c
    2b28:	e1a03004 	mov	r3, r4
    2b2c:	ebfffd4d 	bl	2068 <draw_image>
            draw_image(124 + 15, 92, sec, 30, 15);
    2b30:	e58d4000 	str	r4, [sp]
    2b34:	e3a0008b 	mov	r0, #139	; 0x8b
    2b38:	e3a0105c 	mov	r1, #92	; 0x5c
    2b3c:	e59f20bc 	ldr	r2, [pc, #188]	; 2c00 <draw_scores+0x774>
    2b40:	e3a0301e 	mov	r3, #30
    2b44:	ebfffd47 	bl	2068 <draw_image>
        }

        //draw best score
        ones = hightest_score % 10;
    2b48:	e30e3134 	movw	r3, #57652	; 0xe134
    2b4c:	e340301c 	movt	r3, #28
    2b50:	e5931024 	ldr	r1, [r3, #36]	; 0x24
    2b54:	e3062667 	movw	r2, #26215	; 0x6667
    2b58:	e3462666 	movt	r2, #26214	; 0x6666
    2b5c:	e0c43192 	smull	r3, r4, r2, r1
    2b60:	e1a03fc1 	asr	r3, r1, #31
    2b64:	e0634144 	rsb	r4, r3, r4, asr #2
    2b68:	e1a03004 	mov	r3, r4
    2b6c:	e0844104 	add	r4, r4, r4, lsl #2
    2b70:	e0414084 	sub	r4, r1, r4, lsl #1
        tens = hightest_score / 10 % 10;
    2b74:	e0c20392 	smull	r0, r2, r2, r3
    2b78:	e1a01fc3 	asr	r1, r3, #31
    2b7c:	e0612142 	rsb	r2, r1, r2, asr #2
    2b80:	e0822102 	add	r2, r2, r2, lsl #2
        if (tens != 0){
    2b84:	e0532082 	subs	r2, r3, r2, lsl #1
    2b88:	0a000011 	beq	2bd4 <draw_scores+0x748>
            draw_image(124, 108, num[tens], 15, 15);
    2b8c:	e28d1030 	add	r1, sp, #48	; 0x30
    2b90:	e0812102 	add	r2, r1, r2, lsl #2
    2b94:	e5122028 	ldr	r2, [r2, #-40]	; 0xffffffd8
    2b98:	e3a0500f 	mov	r5, #15
    2b9c:	e58d5000 	str	r5, [sp]
    2ba0:	e3a0007c 	mov	r0, #124	; 0x7c
    2ba4:	e3a0106c 	mov	r1, #108	; 0x6c
    2ba8:	e1a03005 	mov	r3, r5
    2bac:	ebfffd2d 	bl	2068 <draw_image>
            draw_image(124 + 15, 108, num[ones], 15, 15);
    2bb0:	e28d2030 	add	r2, sp, #48	; 0x30
    2bb4:	e0824104 	add	r4, r2, r4, lsl #2
    2bb8:	e5142028 	ldr	r2, [r4, #-40]	; 0xffffffd8
    2bbc:	e58d5000 	str	r5, [sp]
    2bc0:	e3a0008b 	mov	r0, #139	; 0x8b
    2bc4:	e3a0106c 	mov	r1, #108	; 0x6c
    2bc8:	e1a03005 	mov	r3, r5
    2bcc:	ebfffd25 	bl	2068 <draw_image>
    2bd0:	ea000007 	b	2bf4 <draw_scores+0x768>
        } else{
            draw_image(124, 108, num[ones], 15, 15);
    2bd4:	e28d3030 	add	r3, sp, #48	; 0x30
    2bd8:	e0834104 	add	r4, r3, r4, lsl #2
    2bdc:	e5142028 	ldr	r2, [r4, #-40]	; 0xffffffd8
    2be0:	e3a0300f 	mov	r3, #15
    2be4:	e58d3000 	str	r3, [sp]
    2be8:	e3a0007c 	mov	r0, #124	; 0x7c
    2bec:	e3a0106c 	mov	r1, #108	; 0x6c
    2bf0:	ebfffd1c 	bl	2068 <draw_image>
        }
    }
    
    2bf4:	e28dd030 	add	sp, sp, #48	; 0x30
    2bf8:	e8bd8070 	pop	{r4, r5, r6, pc}
    2bfc:	001c5eb8 	.word	0x001c5eb8
    2c00:	001c609c 	.word	0x001c609c

00002c04 <draw_main_canvas>:

    //draw things
    draw_main_canvas();
}

void draw_main_canvas(){
    2c04:	e92d4ff0 	push	{r4, r5, r6, r7, r8, r9, r10, r11, lr}
    2c08:	e24dd014 	sub	sp, sp, #20
    volatile int * character_ctrl_ptr = (int *)0xFF203030;
    // declare other variables(not shown)
    // initialize location and direction of rectangles(not shown)

    /* set front pixel buffer to start of FPGA On-chip memory */
    *(pixel_ctrl_ptr + 1) = 0xC8000000; // first store the address in the 
    2c0c:	e3035fff 	movw	r5, #16383	; 0x3fff
    2c10:	e34f5f20 	movt	r5, #65312	; 0xff20
    2c14:	e3a03332 	mov	r3, #-939524096	; 0xc8000000
    2c18:	e5053fdb 	str	r3, [r5, #-4059]	; 0xfffff025
                                        // back buffer
    //*(character_ctrl_ptr + 1) = 0xC9000000;                                    
    /* now, swap the front/back buffers, to set the front buffer location */
    wait_for_vsync();
    2c1c:	ebfffe0d 	bl	2458 <wait_for_vsync>
    /* initialize a pointer to the pixel buffer, used by drawing functions */
    pixel_buffer_start = *pixel_ctrl_ptr;
    2c20:	e5153fdf 	ldr	r3, [r5, #-4063]	; 0xfffff021
    2c24:	e30e4134 	movw	r4, #57652	; 0xe134
    2c28:	e340401c 	movt	r4, #28
    2c2c:	e584301c 	str	r3, [r4, #28]
    character_buffer_start = *character_ctrl_ptr;
    2c30:	e5153fcf 	ldr	r3, [r5, #-4047]	; 0xfffff031
    2c34:	e5843020 	str	r3, [r4, #32]

    clear_screen(); // pixel_buffer_start points to the pixel buffer
    2c38:	ebfffda6 	bl	22d8 <clear_screen>
    /* set back pixel buffer to start of SDRAM memory */
    *(pixel_ctrl_ptr + 1) = 0xC0000000;
    2c3c:	e3a03103 	mov	r3, #-1073741824	; 0xc0000000
    2c40:	e5053fdb 	str	r3, [r5, #-4059]	; 0xfffff025
    //*(character_ctrl_ptr + 1) = 0xC9000000; 

    pixel_buffer_start = *(pixel_ctrl_ptr + 1); // we draw on the back buffer
    2c44:	e5153fdb 	ldr	r3, [r5, #-4059]	; 0xfffff025
    2c48:	e584301c 	str	r3, [r4, #28]
    //character_buffer_start = *(character_ctrl_ptr + 1);
	character_buffer_start = 0xC9000000; 
    2c4c:	e3a034c9 	mov	r3, #-922746880	; 0xc9000000
    2c50:	e5843020 	str	r3, [r4, #32]
            } else if (mario_jump && !is_mario_moving_forward){
                draw_image(mario_x, mario_y, Mario_jump_back, 26, 25);
            } else if (is_mario_moving_forward){
                draw_image(mario_x, mario_y, Mario_run, 25, 25);
            } else if (!is_mario_moving_forward){
                draw_image(mario_x, mario_y, Mario_run_back, 25, 25);
    2c54:	e30736f0 	movw	r3, #30448	; 0x76f0
    2c58:	e340301c 	movt	r3, #28
    2c5c:	e58d3008 	str	r3, [sp, #8]
    2c60:	e283cd3b 	add	r12, r3, #3776	; 0xec0
    2c64:	e28cc008 	add	r12, r12, #8
    2c68:	e58dc00c 	str	r12, [sp, #12]
            
            //draw bad mushrooms
            for (int i = 0; i < 3; i++)
            {
                if (isBadMushroom[i]){
                    draw_image(badMushroom_x[i], badMushroom_y[i], bad_mushroom, 19, 19);
    2c6c:	e309b6e8 	movw	r11, #38632	; 0x96e8
    2c70:	e340b01c 	movt	r11, #28
    2c74:	e24b9e76 	sub	r9, r11, #1888	; 0x760
    2c78:	e249900c 	sub	r9, r9, #12
	
    while (1)
    {

        // code for drawing the boxes and lines 
        draw_background();
    2c7c:	ebfffd2d 	bl	2138 <draw_background>

        draw_scores();
    2c80:	ebfffe01 	bl	248c <draw_scores>
		
        //check whether the game is over
        if (!isGameOver && !isWin){
    2c84:	e30e3134 	movw	r3, #57652	; 0xe134
    2c88:	e340301c 	movt	r3, #28
    2c8c:	e5d33011 	ldrb	r3, [r3, #17]
    2c90:	e3530000 	cmp	r3, #0
    2c94:	1a000070 	bne	2e5c <draw_main_canvas+0x258>
    2c98:	e30e3134 	movw	r3, #57652	; 0xe134
    2c9c:	e340301c 	movt	r3, #28
    2ca0:	e5d33010 	ldrb	r3, [r3, #16]
    2ca4:	e3530000 	cmp	r3, #0
    2ca8:	1a00006b 	bne	2e5c <draw_main_canvas+0x258>
            //draw Mario depends on different movements
            if (mario_jump && is_mario_moving_forward){
    2cac:	e30e3134 	movw	r3, #57652	; 0xe134
    2cb0:	e340301c 	movt	r3, #28
    2cb4:	e5d33014 	ldrb	r3, [r3, #20]
    2cb8:	e3530000 	cmp	r3, #0
    2cbc:	0a000075 	beq	2e98 <draw_main_canvas+0x294>
    2cc0:	e3033e00 	movw	r3, #15872	; 0x3e00
    2cc4:	e3403000 	movt	r3, #0
    2cc8:	e5d33084 	ldrb	r3, [r3, #132]	; 0x84
    2ccc:	e3530000 	cmp	r3, #0
                draw_image(mario_x, mario_y, Mario_jump, 26, 25);
    2cd0:	e3033e00 	movw	r3, #15872	; 0x3e00
    2cd4:	e3403000 	movt	r3, #0
    2cd8:	e593000c 	ldr	r0, [r3, #12]
    2cdc:	e5931010 	ldr	r1, [r3, #16]
    2ce0:	159d3008 	ldrne	r3, [sp, #8]
    2ce4:	12432d3d 	subne	r2, r3, #3904	; 0xf40
    2ce8:	13a03019 	movne	r3, #25
    2cec:	158d3000 	strne	r3, [sp]
    2cf0:	1242200c 	subne	r2, r2, #12
            } else if (mario_jump && !is_mario_moving_forward){
                draw_image(mario_x, mario_y, Mario_jump_back, 26, 25);
    2cf4:	059dc008 	ldreq	r12, [sp, #8]
    2cf8:	024c2e52 	subeq	r2, r12, #1312	; 0x520
    2cfc:	03a03019 	moveq	r3, #25
    2d00:	058d3000 	streq	r3, [sp]
    2d04:	02422004 	subeq	r2, r2, #4
    2d08:	e3a0301a 	mov	r3, #26
    2d0c:	ebfffcd5 	bl	2068 <draw_image>
    2d10:	ea00005a 	b	2e80 <draw_main_canvas+0x27c>
            } else if (is_mario_moving_forward){
                draw_image(mario_x, mario_y, Mario_run, 25, 25);
    2d14:	e3033e00 	movw	r3, #15872	; 0x3e00
    2d18:	e3403000 	movt	r3, #0
    2d1c:	e593000c 	ldr	r0, [r3, #12]
    2d20:	e5931010 	ldr	r1, [r3, #16]
    2d24:	e3a03019 	mov	r3, #25
    2d28:	e58d3000 	str	r3, [sp]
    2d2c:	e59dc008 	ldr	r12, [sp, #8]
    2d30:	e28c2c05 	add	r2, r12, #1280	; 0x500
    2d34:	e2822004 	add	r2, r2, #4
    2d38:	ebfffcca 	bl	2068 <draw_image>
    2d3c:	ea00004f 	b	2e80 <draw_main_canvas+0x27c>
            } else if (!is_mario_moving_forward){
                draw_image(mario_x, mario_y, Mario_run_back, 25, 25);
    2d40:	e3033e00 	movw	r3, #15872	; 0x3e00
    2d44:	e3403000 	movt	r3, #0
    2d48:	e593000c 	ldr	r0, [r3, #12]
    2d4c:	e5931010 	ldr	r1, [r3, #16]
    2d50:	e3a03019 	mov	r3, #25
    2d54:	e58d3000 	str	r3, [sp]
    2d58:	e59d200c 	ldr	r2, [sp, #12]
    2d5c:	ebfffcc1 	bl	2068 <draw_image>
    2d60:	ea000046 	b	2e80 <draw_main_canvas+0x27c>
            } 
            
            //draw bad mushrooms
            for (int i = 0; i < 3; i++)
            {
                if (isBadMushroom[i]){
    2d64:	e5f53001 	ldrb	r3, [r5, #1]!
    2d68:	e3530000 	cmp	r3, #0
    2d6c:	0a000007 	beq	2d90 <draw_main_canvas+0x18c>
                    draw_image(badMushroom_x[i], badMushroom_y[i], bad_mushroom, 19, 19);
    2d70:	e2863018 	add	r3, r6, #24
    2d74:	e7940003 	ldr	r0, [r4, r3]
    2d78:	e2863024 	add	r3, r6, #36	; 0x24
    2d7c:	e7941003 	ldr	r1, [r4, r3]
    2d80:	e58d7000 	str	r7, [sp]
    2d84:	e1a02009 	mov	r2, r9
    2d88:	e1a03007 	mov	r3, r7
    2d8c:	ebfffcb5 	bl	2068 <draw_image>
    2d90:	e2844004 	add	r4, r4, #4
            } else if (!is_mario_moving_forward){
                draw_image(mario_x, mario_y, Mario_run_back, 25, 25);
            } 
            
            //draw bad mushrooms
            for (int i = 0; i < 3; i++)
    2d94:	e354000c 	cmp	r4, #12
    2d98:	1afffff1 	bne	2d64 <draw_main_canvas+0x160>
                if (isBadMushroom[i]){
                    draw_image(badMushroom_x[i], badMushroom_y[i], bad_mushroom, 19, 19);
                } 
            }
            
            if (isGoodMushroom){
    2d9c:	e30e3134 	movw	r3, #57652	; 0xe134
    2da0:	e340301c 	movt	r3, #28
    2da4:	e5d3300b 	ldrb	r3, [r3, #11]
    2da8:	e3530000 	cmp	r3, #0
    2dac:	0a000007 	beq	2dd0 <draw_main_canvas+0x1cc>
                draw_image(goodMushroom_x, goodMushroom_y, good_mushroom, 19, 19);
    2db0:	e3033e00 	movw	r3, #15872	; 0x3e00
    2db4:	e3403000 	movt	r3, #0
    2db8:	e5930048 	ldr	r0, [r3, #72]	; 0x48
    2dbc:	e593104c 	ldr	r1, [r3, #76]	; 0x4c
    2dc0:	e3a03013 	mov	r3, #19
    2dc4:	e58d3000 	str	r3, [sp]
    2dc8:	e24b2f72 	sub	r2, r11, #456	; 0x1c8
    2dcc:	ebfffca5 	bl	2068 <draw_image>
            }

            if (isTurtle){
    2dd0:	e30e3134 	movw	r3, #57652	; 0xe134
    2dd4:	e340301c 	movt	r3, #28
    2dd8:	e5d3300c 	ldrb	r3, [r3, #12]
    2ddc:	e3530000 	cmp	r3, #0
    2de0:	0a000032 	beq	2eb0 <draw_main_canvas+0x2ac>
                if (isTurtleMovingRight){
    2de4:	e3033e00 	movw	r3, #15872	; 0x3e00
    2de8:	e3403000 	movt	r3, #0
    2dec:	e5d33050 	ldrb	r3, [r3, #80]	; 0x50
    2df0:	e3530000 	cmp	r3, #0
                    draw_image(turtle_x, turtle_y, turtle_right, 19, 28);
    2df4:	e3033e00 	movw	r3, #15872	; 0x3e00
    2df8:	e3403000 	movt	r3, #0
    2dfc:	e5930054 	ldr	r0, [r3, #84]	; 0x54
    2e00:	e5931058 	ldr	r1, [r3, #88]	; 0x58
    2e04:	e3a0301c 	mov	r3, #28
    2e08:	e58d3000 	str	r3, [sp]
    2e0c:	128b2ff7 	addne	r2, r11, #988	; 0x3dc
                }else{
                    draw_image(turtle_x, turtle_y, turtle, 19, 28);
    2e10:	028b2ec2 	addeq	r2, r11, #3104	; 0xc20
    2e14:	0282200c 	addeq	r2, r2, #12
    2e18:	e3a03013 	mov	r3, #19
    2e1c:	ebfffc91 	bl	2068 <draw_image>
    2e20:	ea000022 	b	2eb0 <draw_main_canvas+0x2ac>
            }

            //draw moneys
            for (int i = 0; i < 3; i++)
            {   
                if (isMoney[i]){
    2e24:	e5f53001 	ldrb	r3, [r5, #1]!
    2e28:	e3530000 	cmp	r3, #0
    2e2c:	0a000007 	beq	2e50 <draw_main_canvas+0x24c>
                    draw_image(money_x[i], money_y[i], money, 16, 19);
    2e30:	e2863030 	add	r3, r6, #48	; 0x30
    2e34:	e7940003 	ldr	r0, [r4, r3]
    2e38:	e286303c 	add	r3, r6, #60	; 0x3c
    2e3c:	e7941003 	ldr	r1, [r4, r3]
    2e40:	e58d8000 	str	r8, [sp]
    2e44:	e1a0200a 	mov	r2, r10
    2e48:	e1a03007 	mov	r3, r7
    2e4c:	ebfffc85 	bl	2068 <draw_image>
    2e50:	e2844004 	add	r4, r4, #4
                    draw_image(turtle_x, turtle_y, turtle, 19, 28);
                }
            }

            //draw moneys
            for (int i = 0; i < 3; i++)
    2e54:	e354000c 	cmp	r4, #12
    2e58:	1afffff1 	bne	2e24 <draw_main_canvas+0x220>
        }

        
        // code for updating the locations of boxes
        //update_location();
        update_location();
    2e5c:	ebfffc6d 	bl	2018 <update_location>
        wait_for_vsync(); // swap front and back buffers on VGA vertical sync
    2e60:	ebfffd7c 	bl	2458 <wait_for_vsync>
        pixel_buffer_start = *(pixel_ctrl_ptr + 1); // new back buffer
    2e64:	e3033fff 	movw	r3, #16383	; 0x3fff
    2e68:	e34f3f20 	movt	r3, #65312	; 0xff20
    2e6c:	e5132fdb 	ldr	r2, [r3, #-4059]	; 0xfffff025
    2e70:	e30e3134 	movw	r3, #57652	; 0xe134
    2e74:	e340301c 	movt	r3, #28
    2e78:	e583201c 	str	r2, [r3, #28]
    }
    2e7c:	eaffff7e 	b	2c7c <draw_main_canvas+0x78>

    //draw things
    draw_main_canvas();
}

void draw_main_canvas(){
    2e80:	e59f5048 	ldr	r5, [pc, #72]	; 2ed0 <draw_main_canvas+0x2cc>
    2e84:	e3a04000 	mov	r4, #0
            
            //draw bad mushrooms
            for (int i = 0; i < 3; i++)
            {
                if (isBadMushroom[i]){
                    draw_image(badMushroom_x[i], badMushroom_y[i], bad_mushroom, 19, 19);
    2e88:	e3036e00 	movw	r6, #15872	; 0x3e00
    2e8c:	e3406000 	movt	r6, #0
    2e90:	e3a07013 	mov	r7, #19
    2e94:	eaffffb2 	b	2d64 <draw_main_canvas+0x160>
            //draw Mario depends on different movements
            if (mario_jump && is_mario_moving_forward){
                draw_image(mario_x, mario_y, Mario_jump, 26, 25);
            } else if (mario_jump && !is_mario_moving_forward){
                draw_image(mario_x, mario_y, Mario_jump_back, 26, 25);
            } else if (is_mario_moving_forward){
    2e98:	e3033e00 	movw	r3, #15872	; 0x3e00
    2e9c:	e3403000 	movt	r3, #0
    2ea0:	e5d33084 	ldrb	r3, [r3, #132]	; 0x84
    2ea4:	e3530000 	cmp	r3, #0
    2ea8:	0affffa4 	beq	2d40 <draw_main_canvas+0x13c>
    2eac:	eaffff98 	b	2d14 <draw_main_canvas+0x110>

    //draw things
    draw_main_canvas();
}

void draw_main_canvas(){
    2eb0:	e59f501c 	ldr	r5, [pc, #28]	; 2ed4 <draw_main_canvas+0x2d0>
    2eb4:	e3a04000 	mov	r4, #0

            //draw moneys
            for (int i = 0; i < 3; i++)
            {   
                if (isMoney[i]){
                    draw_image(money_x[i], money_y[i], money, 16, 19);
    2eb8:	e3036e00 	movw	r6, #15872	; 0x3e00
    2ebc:	e3406000 	movt	r6, #0
    2ec0:	e59fa010 	ldr	r10, [pc, #16]	; 2ed8 <draw_main_canvas+0x2d4>
    2ec4:	e3a08013 	mov	r8, #19
    2ec8:	e3a07010 	mov	r7, #16
    2ecc:	eaffffd4 	b	2e24 <draw_main_canvas+0x220>
    2ed0:	00003e13 	.word	0x00003e13
    2ed4:	001ce13b 	.word	0x001ce13b
    2ed8:	001cab64 	.word	0x001cab64

00002edc <main>:
void reset_characters();
void turtle_update_location();
void beat_turtle();
void draw_scores();

int main(void){
    2edc:	e92d4008 	push	{r3, lr}
    disable_A9_interrupts ();	// disable interrupts in the A9 processor
    2ee0:	ebfff4e3 	bl	274 <disable_A9_interrupts>
	set_A9_IRQ_stack ();			// initialize the stack pointer for IRQ mode
    2ee4:	ebfff4e5 	bl	280 <set_A9_IRQ_stack>
	config_GIC ();					// configure the general interrupt controller
    2ee8:	ebfff4fb 	bl	2dc <config_GIC>
    config_interval_timer(); // configure Altera interval timer to generate
    2eec:	ebfff519 	bl	358 <config_interval_timer>
                             // interrupts
	config_KEYs ();				// configure pushbutton KEYs to generate interrupts
    2ef0:	ebfff50c 	bl	328 <config_KEYs>
    config_PS2();  // configure PS/2 port to generate interrupts
    2ef4:	ebfff510 	bl	33c <config_PS2>

	enable_A9_interrupts ();	// enable interrupts in the A9 processor
    2ef8:	ebfff4e7 	bl	29c <enable_A9_interrupts>

    //draw things
    draw_main_canvas();
    2efc:	ebffff40 	bl	2c04 <draw_main_canvas>

00002f00 <__aeabi_drsub>:
    2f00:	e2211102 	eor	r1, r1, #-2147483648	; 0x80000000
    2f04:	ea000000 	b	2f0c <__adddf3>

00002f08 <__aeabi_dsub>:
    2f08:	e2233102 	eor	r3, r3, #-2147483648	; 0x80000000

00002f0c <__adddf3>:
    2f0c:	e92d4030 	push	{r4, r5, lr}
    2f10:	e1a04081 	lsl	r4, r1, #1
    2f14:	e1a05083 	lsl	r5, r3, #1
    2f18:	e1340005 	teq	r4, r5
    2f1c:	01300002 	teqeq	r0, r2
    2f20:	1194c000 	orrsne	r12, r4, r0
    2f24:	1195c002 	orrsne	r12, r5, r2
    2f28:	11f0cac4 	mvnsne	r12, r4, asr #21
    2f2c:	11f0cac5 	mvnsne	r12, r5, asr #21
    2f30:	0a00008c 	beq	3168 <__adddf3+0x25c>
    2f34:	e1a04aa4 	lsr	r4, r4, #21
    2f38:	e0745aa5 	rsbs	r5, r4, r5, lsr #21
    2f3c:	b2655000 	rsblt	r5, r5, #0
    2f40:	da000006 	ble	2f60 <__adddf3+0x54>
    2f44:	e0844005 	add	r4, r4, r5
    2f48:	e0202002 	eor	r2, r0, r2
    2f4c:	e0213003 	eor	r3, r1, r3
    2f50:	e0220000 	eor	r0, r2, r0
    2f54:	e0231001 	eor	r1, r3, r1
    2f58:	e0202002 	eor	r2, r0, r2
    2f5c:	e0213003 	eor	r3, r1, r3
    2f60:	e3550036 	cmp	r5, #54	; 0x36
    2f64:	88bd4030 	pophi	{r4, r5, lr}
    2f68:	812fff1e 	bxhi	lr
    2f6c:	e3110102 	tst	r1, #-2147483648	; 0x80000000
    2f70:	e1a01601 	lsl	r1, r1, #12
    2f74:	e3a0c601 	mov	r12, #1048576	; 0x100000
    2f78:	e18c1621 	orr	r1, r12, r1, lsr #12
    2f7c:	0a000001 	beq	2f88 <__adddf3+0x7c>
    2f80:	e2700000 	rsbs	r0, r0, #0
    2f84:	e2e11000 	rsc	r1, r1, #0
    2f88:	e3130102 	tst	r3, #-2147483648	; 0x80000000
    2f8c:	e1a03603 	lsl	r3, r3, #12
    2f90:	e18c3623 	orr	r3, r12, r3, lsr #12
    2f94:	0a000001 	beq	2fa0 <__adddf3+0x94>
    2f98:	e2722000 	rsbs	r2, r2, #0
    2f9c:	e2e33000 	rsc	r3, r3, #0
    2fa0:	e1340005 	teq	r4, r5
    2fa4:	0a000069 	beq	3150 <__adddf3+0x244>
    2fa8:	e2444001 	sub	r4, r4, #1
    2fac:	e275e020 	rsbs	lr, r5, #32
    2fb0:	ba000005 	blt	2fcc <__adddf3+0xc0>
    2fb4:	e1a0ce12 	lsl	r12, r2, lr
    2fb8:	e0900532 	adds	r0, r0, r2, lsr r5
    2fbc:	e2a11000 	adc	r1, r1, #0
    2fc0:	e0900e13 	adds	r0, r0, r3, lsl lr
    2fc4:	e0b11553 	adcs	r1, r1, r3, asr r5
    2fc8:	ea000006 	b	2fe8 <__adddf3+0xdc>
    2fcc:	e2455020 	sub	r5, r5, #32
    2fd0:	e28ee020 	add	lr, lr, #32
    2fd4:	e3520001 	cmp	r2, #1
    2fd8:	e1a0ce13 	lsl	r12, r3, lr
    2fdc:	238cc002 	orrcs	r12, r12, #2
    2fe0:	e0900553 	adds	r0, r0, r3, asr r5
    2fe4:	e0b11fc3 	adcs	r1, r1, r3, asr #31
    2fe8:	e2015102 	and	r5, r1, #-2147483648	; 0x80000000
    2fec:	5a000002 	bpl	2ffc <__adddf3+0xf0>
    2ff0:	e27cc000 	rsbs	r12, r12, #0
    2ff4:	e2f00000 	rscs	r0, r0, #0
    2ff8:	e2e11000 	rsc	r1, r1, #0
    2ffc:	e3510601 	cmp	r1, #1048576	; 0x100000
    3000:	3a00000f 	bcc	3044 <__adddf3+0x138>
    3004:	e3510602 	cmp	r1, #2097152	; 0x200000
    3008:	3a000006 	bcc	3028 <__adddf3+0x11c>
    300c:	e1b010a1 	lsrs	r1, r1, #1
    3010:	e1b00060 	rrxs	r0, r0
    3014:	e1a0c06c 	rrx	r12, r12
    3018:	e2844001 	add	r4, r4, #1
    301c:	e1a02a84 	lsl	r2, r4, #21
    3020:	e3720501 	cmn	r2, #4194304	; 0x400000
    3024:	2a00006b 	bcs	31d8 <__adddf3+0x2cc>
    3028:	e35c0102 	cmp	r12, #-2147483648	; 0x80000000
    302c:	01b0c0a0 	lsrseq	r12, r0, #1
    3030:	e2b00000 	adcs	r0, r0, #0
    3034:	e0a11a04 	adc	r1, r1, r4, lsl #20
    3038:	e1811005 	orr	r1, r1, r5
    303c:	e8bd4030 	pop	{r4, r5, lr}
    3040:	e12fff1e 	bx	lr
    3044:	e1b0c08c 	lsls	r12, r12, #1
    3048:	e0b00000 	adcs	r0, r0, r0
    304c:	e0a11001 	adc	r1, r1, r1
    3050:	e3110601 	tst	r1, #1048576	; 0x100000
    3054:	e2444001 	sub	r4, r4, #1
    3058:	1afffff2 	bne	3028 <__adddf3+0x11c>
    305c:	e3310000 	teq	r1, #0
    3060:	13a03014 	movne	r3, #20
    3064:	03a03034 	moveq	r3, #52	; 0x34
    3068:	01a01000 	moveq	r1, r0
    306c:	03a00000 	moveq	r0, #0
    3070:	e1a02001 	mov	r2, r1
    3074:	e3520801 	cmp	r2, #65536	; 0x10000
    3078:	21a02822 	lsrcs	r2, r2, #16
    307c:	22433010 	subcs	r3, r3, #16
    3080:	e3520c01 	cmp	r2, #256	; 0x100
    3084:	21a02422 	lsrcs	r2, r2, #8
    3088:	22433008 	subcs	r3, r3, #8
    308c:	e3520010 	cmp	r2, #16
    3090:	21a02222 	lsrcs	r2, r2, #4
    3094:	22433004 	subcs	r3, r3, #4
    3098:	e3520004 	cmp	r2, #4
    309c:	22433002 	subcs	r3, r3, #2
    30a0:	304330a2 	subcc	r3, r3, r2, lsr #1
    30a4:	e04331a2 	sub	r3, r3, r2, lsr #3
    30a8:	e2532020 	subs	r2, r3, #32
    30ac:	aa000007 	bge	30d0 <__adddf3+0x1c4>
    30b0:	e292200c 	adds	r2, r2, #12
    30b4:	da000004 	ble	30cc <__adddf3+0x1c0>
    30b8:	e282c014 	add	r12, r2, #20
    30bc:	e262200c 	rsb	r2, r2, #12
    30c0:	e1a00c11 	lsl	r0, r1, r12
    30c4:	e1a01231 	lsr	r1, r1, r2
    30c8:	ea000004 	b	30e0 <__adddf3+0x1d4>
    30cc:	e2822014 	add	r2, r2, #20
    30d0:	d262c020 	rsble	r12, r2, #32
    30d4:	e1a01211 	lsl	r1, r1, r2
    30d8:	d1811c30 	orrle	r1, r1, r0, lsr r12
    30dc:	d1a00210 	lslle	r0, r0, r2
    30e0:	e0544003 	subs	r4, r4, r3
    30e4:	a0811a04 	addge	r1, r1, r4, lsl #20
    30e8:	a1811005 	orrge	r1, r1, r5
    30ec:	a8bd4030 	popge	{r4, r5, lr}
    30f0:	a12fff1e 	bxge	lr
    30f4:	e1e04004 	mvn	r4, r4
    30f8:	e254401f 	subs	r4, r4, #31
    30fc:	aa00000f 	bge	3140 <__adddf3+0x234>
    3100:	e294400c 	adds	r4, r4, #12
    3104:	ca000006 	bgt	3124 <__adddf3+0x218>
    3108:	e2844014 	add	r4, r4, #20
    310c:	e2642020 	rsb	r2, r4, #32
    3110:	e1a00430 	lsr	r0, r0, r4
    3114:	e1800211 	orr	r0, r0, r1, lsl r2
    3118:	e1851431 	orr	r1, r5, r1, lsr r4
    311c:	e8bd4030 	pop	{r4, r5, lr}
    3120:	e12fff1e 	bx	lr
    3124:	e264400c 	rsb	r4, r4, #12
    3128:	e2642020 	rsb	r2, r4, #32
    312c:	e1a00230 	lsr	r0, r0, r2
    3130:	e1800411 	orr	r0, r0, r1, lsl r4
    3134:	e1a01005 	mov	r1, r5
    3138:	e8bd4030 	pop	{r4, r5, lr}
    313c:	e12fff1e 	bx	lr
    3140:	e1a00431 	lsr	r0, r1, r4
    3144:	e1a01005 	mov	r1, r5
    3148:	e8bd4030 	pop	{r4, r5, lr}
    314c:	e12fff1e 	bx	lr
    3150:	e3340000 	teq	r4, #0
    3154:	e2233601 	eor	r3, r3, #1048576	; 0x100000
    3158:	02211601 	eoreq	r1, r1, #1048576	; 0x100000
    315c:	02844001 	addeq	r4, r4, #1
    3160:	12455001 	subne	r5, r5, #1
    3164:	eaffff8f 	b	2fa8 <__adddf3+0x9c>
    3168:	e1f0cac4 	mvns	r12, r4, asr #21
    316c:	11f0cac5 	mvnsne	r12, r5, asr #21
    3170:	0a00001d 	beq	31ec <__adddf3+0x2e0>
    3174:	e1340005 	teq	r4, r5
    3178:	01300002 	teqeq	r0, r2
    317c:	0a000004 	beq	3194 <__adddf3+0x288>
    3180:	e194c000 	orrs	r12, r4, r0
    3184:	01a01003 	moveq	r1, r3
    3188:	01a00002 	moveq	r0, r2
    318c:	e8bd4030 	pop	{r4, r5, lr}
    3190:	e12fff1e 	bx	lr
    3194:	e1310003 	teq	r1, r3
    3198:	13a01000 	movne	r1, #0
    319c:	13a00000 	movne	r0, #0
    31a0:	18bd4030 	popne	{r4, r5, lr}
    31a4:	112fff1e 	bxne	lr
    31a8:	e1b0caa4 	lsrs	r12, r4, #21
    31ac:	1a000004 	bne	31c4 <__adddf3+0x2b8>
    31b0:	e1b00080 	lsls	r0, r0, #1
    31b4:	e0b11001 	adcs	r1, r1, r1
    31b8:	23811102 	orrcs	r1, r1, #-2147483648	; 0x80000000
    31bc:	e8bd4030 	pop	{r4, r5, lr}
    31c0:	e12fff1e 	bx	lr
    31c4:	e2944501 	adds	r4, r4, #4194304	; 0x400000
    31c8:	32811601 	addcc	r1, r1, #1048576	; 0x100000
    31cc:	38bd4030 	popcc	{r4, r5, lr}
    31d0:	312fff1e 	bxcc	lr
    31d4:	e2015102 	and	r5, r1, #-2147483648	; 0x80000000
    31d8:	e385147f 	orr	r1, r5, #2130706432	; 0x7f000000
    31dc:	e381160f 	orr	r1, r1, #15728640	; 0xf00000
    31e0:	e3a00000 	mov	r0, #0
    31e4:	e8bd4030 	pop	{r4, r5, lr}
    31e8:	e12fff1e 	bx	lr
    31ec:	e1f0cac4 	mvns	r12, r4, asr #21
    31f0:	11a01003 	movne	r1, r3
    31f4:	11a00002 	movne	r0, r2
    31f8:	01f0cac5 	mvnseq	r12, r5, asr #21
    31fc:	11a03001 	movne	r3, r1
    3200:	11a02000 	movne	r2, r0
    3204:	e1904601 	orrs	r4, r0, r1, lsl #12
    3208:	01925603 	orrseq	r5, r2, r3, lsl #12
    320c:	01310003 	teqeq	r1, r3
    3210:	13811702 	orrne	r1, r1, #524288	; 0x80000
    3214:	e8bd4030 	pop	{r4, r5, lr}
    3218:	e12fff1e 	bx	lr

0000321c <__aeabi_ui2d>:
    321c:	e3300000 	teq	r0, #0
    3220:	03a01000 	moveq	r1, #0
    3224:	012fff1e 	bxeq	lr
    3228:	e92d4030 	push	{r4, r5, lr}
    322c:	e3a04b01 	mov	r4, #1024	; 0x400
    3230:	e2844032 	add	r4, r4, #50	; 0x32
    3234:	e3a05000 	mov	r5, #0
    3238:	e3a01000 	mov	r1, #0
    323c:	eaffff86 	b	305c <__adddf3+0x150>

00003240 <__aeabi_i2d>:
    3240:	e3300000 	teq	r0, #0
    3244:	03a01000 	moveq	r1, #0
    3248:	012fff1e 	bxeq	lr
    324c:	e92d4030 	push	{r4, r5, lr}
    3250:	e3a04b01 	mov	r4, #1024	; 0x400
    3254:	e2844032 	add	r4, r4, #50	; 0x32
    3258:	e2105102 	ands	r5, r0, #-2147483648	; 0x80000000
    325c:	42600000 	rsbmi	r0, r0, #0
    3260:	e3a01000 	mov	r1, #0
    3264:	eaffff7c 	b	305c <__adddf3+0x150>

00003268 <__aeabi_f2d>:
    3268:	e1b02080 	lsls	r2, r0, #1
    326c:	e1a011c2 	asr	r1, r2, #3
    3270:	e1a01061 	rrx	r1, r1
    3274:	e1a00e02 	lsl	r0, r2, #28
    3278:	121234ff 	andsne	r3, r2, #-16777216	; 0xff000000
    327c:	133304ff 	teqne	r3, #-16777216	; 0xff000000
    3280:	1221130e 	eorne	r1, r1, #939524096	; 0x38000000
    3284:	112fff1e 	bxne	lr
    3288:	e3320000 	teq	r2, #0
    328c:	133304ff 	teqne	r3, #-16777216	; 0xff000000
    3290:	012fff1e 	bxeq	lr
    3294:	e92d4030 	push	{r4, r5, lr}
    3298:	e3a04d0e 	mov	r4, #896	; 0x380
    329c:	e2015102 	and	r5, r1, #-2147483648	; 0x80000000
    32a0:	e3c11102 	bic	r1, r1, #-2147483648	; 0x80000000
    32a4:	eaffff6c 	b	305c <__adddf3+0x150>

000032a8 <__aeabi_ul2d>:
    32a8:	e1902001 	orrs	r2, r0, r1
    32ac:	012fff1e 	bxeq	lr
    32b0:	e92d4030 	push	{r4, r5, lr}
    32b4:	e3a05000 	mov	r5, #0
    32b8:	ea000006 	b	32d8 <__aeabi_l2d+0x1c>

000032bc <__aeabi_l2d>:
    32bc:	e1902001 	orrs	r2, r0, r1
    32c0:	012fff1e 	bxeq	lr
    32c4:	e92d4030 	push	{r4, r5, lr}
    32c8:	e2115102 	ands	r5, r1, #-2147483648	; 0x80000000
    32cc:	5a000001 	bpl	32d8 <__aeabi_l2d+0x1c>
    32d0:	e2700000 	rsbs	r0, r0, #0
    32d4:	e2e11000 	rsc	r1, r1, #0
    32d8:	e3a04b01 	mov	r4, #1024	; 0x400
    32dc:	e2844032 	add	r4, r4, #50	; 0x32
    32e0:	e1b0cb21 	lsrs	r12, r1, #22
    32e4:	0affff44 	beq	2ffc <__adddf3+0xf0>
    32e8:	e3a02003 	mov	r2, #3
    32ec:	e1b0c1ac 	lsrs	r12, r12, #3
    32f0:	12822003 	addne	r2, r2, #3
    32f4:	e1b0c1ac 	lsrs	r12, r12, #3
    32f8:	12822003 	addne	r2, r2, #3
    32fc:	e08221ac 	add	r2, r2, r12, lsr #3
    3300:	e2623020 	rsb	r3, r2, #32
    3304:	e1a0c310 	lsl	r12, r0, r3
    3308:	e1a00230 	lsr	r0, r0, r2
    330c:	e1800311 	orr	r0, r0, r1, lsl r3
    3310:	e1a01231 	lsr	r1, r1, r2
    3314:	e0844002 	add	r4, r4, r2
    3318:	eaffff37 	b	2ffc <__adddf3+0xf0>

0000331c <__aeabi_dmul>:
    331c:	e92d4070 	push	{r4, r5, r6, lr}
    3320:	e3a0c0ff 	mov	r12, #255	; 0xff
    3324:	e38ccc07 	orr	r12, r12, #1792	; 0x700
    3328:	e01c4a21 	ands	r4, r12, r1, lsr #20
    332c:	101c5a23 	andsne	r5, r12, r3, lsr #20
    3330:	1134000c 	teqne	r4, r12
    3334:	1135000c 	teqne	r5, r12
    3338:	0b000075 	bleq	3514 <__aeabi_dmul+0x1f8>
    333c:	e0844005 	add	r4, r4, r5
    3340:	e0216003 	eor	r6, r1, r3
    3344:	e1c11a8c 	bic	r1, r1, r12, lsl #21
    3348:	e1c33a8c 	bic	r3, r3, r12, lsl #21
    334c:	e1905601 	orrs	r5, r0, r1, lsl #12
    3350:	11925603 	orrsne	r5, r2, r3, lsl #12
    3354:	e3811601 	orr	r1, r1, #1048576	; 0x100000
    3358:	e3833601 	orr	r3, r3, #1048576	; 0x100000
    335c:	0a00001d 	beq	33d8 <__aeabi_dmul+0xbc>
    3360:	e08ec290 	umull	r12, lr, r0, r2
    3364:	e3a05000 	mov	r5, #0
    3368:	e0a5e291 	umlal	lr, r5, r1, r2
    336c:	e2062102 	and	r2, r6, #-2147483648	; 0x80000000
    3370:	e0a5e390 	umlal	lr, r5, r0, r3
    3374:	e3a06000 	mov	r6, #0
    3378:	e0a65391 	umlal	r5, r6, r1, r3
    337c:	e33c0000 	teq	r12, #0
    3380:	138ee001 	orrne	lr, lr, #1
    3384:	e24440ff 	sub	r4, r4, #255	; 0xff
    3388:	e3560c02 	cmp	r6, #512	; 0x200
    338c:	e2c44c03 	sbc	r4, r4, #768	; 0x300
    3390:	2a000002 	bcs	33a0 <__aeabi_dmul+0x84>
    3394:	e1b0e08e 	lsls	lr, lr, #1
    3398:	e0b55005 	adcs	r5, r5, r5
    339c:	e0a66006 	adc	r6, r6, r6
    33a0:	e1821586 	orr	r1, r2, r6, lsl #11
    33a4:	e1811aa5 	orr	r1, r1, r5, lsr #21
    33a8:	e1a00585 	lsl	r0, r5, #11
    33ac:	e1800aae 	orr	r0, r0, lr, lsr #21
    33b0:	e1a0e58e 	lsl	lr, lr, #11
    33b4:	e254c0fd 	subs	r12, r4, #253	; 0xfd
    33b8:	835c0c07 	cmphi	r12, #1792	; 0x700
    33bc:	8a000011 	bhi	3408 <__aeabi_dmul+0xec>
    33c0:	e35e0102 	cmp	lr, #-2147483648	; 0x80000000
    33c4:	01b0e0a0 	lsrseq	lr, r0, #1
    33c8:	e2b00000 	adcs	r0, r0, #0
    33cc:	e0a11a04 	adc	r1, r1, r4, lsl #20
    33d0:	e8bd4070 	pop	{r4, r5, r6, lr}
    33d4:	e12fff1e 	bx	lr
    33d8:	e2066102 	and	r6, r6, #-2147483648	; 0x80000000
    33dc:	e1861001 	orr	r1, r6, r1
    33e0:	e1800002 	orr	r0, r0, r2
    33e4:	e0211003 	eor	r1, r1, r3
    33e8:	e05440ac 	subs	r4, r4, r12, lsr #1
    33ec:	c074500c 	rsbsgt	r5, r4, r12
    33f0:	c1811a04 	orrgt	r1, r1, r4, lsl #20
    33f4:	c8bd4070 	popgt	{r4, r5, r6, lr}
    33f8:	c12fff1e 	bxgt	lr
    33fc:	e3811601 	orr	r1, r1, #1048576	; 0x100000
    3400:	e3a0e000 	mov	lr, #0
    3404:	e2544001 	subs	r4, r4, #1
    3408:	ca00005d 	bgt	3584 <__aeabi_dmul+0x268>
    340c:	e3740036 	cmn	r4, #54	; 0x36
    3410:	d3a00000 	movle	r0, #0
    3414:	d2011102 	andle	r1, r1, #-2147483648	; 0x80000000
    3418:	d8bd4070 	pople	{r4, r5, r6, lr}
    341c:	d12fff1e 	bxle	lr
    3420:	e2644000 	rsb	r4, r4, #0
    3424:	e2544020 	subs	r4, r4, #32
    3428:	aa00001a 	bge	3498 <__aeabi_dmul+0x17c>
    342c:	e294400c 	adds	r4, r4, #12
    3430:	ca00000c 	bgt	3468 <__aeabi_dmul+0x14c>
    3434:	e2844014 	add	r4, r4, #20
    3438:	e2645020 	rsb	r5, r4, #32
    343c:	e1a03510 	lsl	r3, r0, r5
    3440:	e1a00430 	lsr	r0, r0, r4
    3444:	e1800511 	orr	r0, r0, r1, lsl r5
    3448:	e2012102 	and	r2, r1, #-2147483648	; 0x80000000
    344c:	e3c11102 	bic	r1, r1, #-2147483648	; 0x80000000
    3450:	e0900fa3 	adds	r0, r0, r3, lsr #31
    3454:	e0a21431 	adc	r1, r2, r1, lsr r4
    3458:	e19ee083 	orrs	lr, lr, r3, lsl #1
    345c:	01c00fa3 	biceq	r0, r0, r3, lsr #31
    3460:	e8bd4070 	pop	{r4, r5, r6, lr}
    3464:	e12fff1e 	bx	lr
    3468:	e264400c 	rsb	r4, r4, #12
    346c:	e2645020 	rsb	r5, r4, #32
    3470:	e1a03410 	lsl	r3, r0, r4
    3474:	e1a00530 	lsr	r0, r0, r5
    3478:	e1800411 	orr	r0, r0, r1, lsl r4
    347c:	e2011102 	and	r1, r1, #-2147483648	; 0x80000000
    3480:	e0900fa3 	adds	r0, r0, r3, lsr #31
    3484:	e2a11000 	adc	r1, r1, #0
    3488:	e19ee083 	orrs	lr, lr, r3, lsl #1
    348c:	01c00fa3 	biceq	r0, r0, r3, lsr #31
    3490:	e8bd4070 	pop	{r4, r5, r6, lr}
    3494:	e12fff1e 	bx	lr
    3498:	e2645020 	rsb	r5, r4, #32
    349c:	e18ee510 	orr	lr, lr, r0, lsl r5
    34a0:	e1a03430 	lsr	r3, r0, r4
    34a4:	e1833511 	orr	r3, r3, r1, lsl r5
    34a8:	e1a00431 	lsr	r0, r1, r4
    34ac:	e2011102 	and	r1, r1, #-2147483648	; 0x80000000
    34b0:	e1c00431 	bic	r0, r0, r1, lsr r4
    34b4:	e0800fa3 	add	r0, r0, r3, lsr #31
    34b8:	e19ee083 	orrs	lr, lr, r3, lsl #1
    34bc:	01c00fa3 	biceq	r0, r0, r3, lsr #31
    34c0:	e8bd4070 	pop	{r4, r5, r6, lr}
    34c4:	e12fff1e 	bx	lr
    34c8:	e3340000 	teq	r4, #0
    34cc:	1a000008 	bne	34f4 <__aeabi_dmul+0x1d8>
    34d0:	e2016102 	and	r6, r1, #-2147483648	; 0x80000000
    34d4:	e1b00080 	lsls	r0, r0, #1
    34d8:	e0a11001 	adc	r1, r1, r1
    34dc:	e3110601 	tst	r1, #1048576	; 0x100000
    34e0:	02444001 	subeq	r4, r4, #1
    34e4:	0afffffa 	beq	34d4 <__aeabi_dmul+0x1b8>
    34e8:	e1811006 	orr	r1, r1, r6
    34ec:	e3350000 	teq	r5, #0
    34f0:	112fff1e 	bxne	lr
    34f4:	e2036102 	and	r6, r3, #-2147483648	; 0x80000000
    34f8:	e1b02082 	lsls	r2, r2, #1
    34fc:	e0a33003 	adc	r3, r3, r3
    3500:	e3130601 	tst	r3, #1048576	; 0x100000
    3504:	02455001 	subeq	r5, r5, #1
    3508:	0afffffa 	beq	34f8 <__aeabi_dmul+0x1dc>
    350c:	e1833006 	orr	r3, r3, r6
    3510:	e12fff1e 	bx	lr
    3514:	e134000c 	teq	r4, r12
    3518:	e00c5a23 	and	r5, r12, r3, lsr #20
    351c:	1135000c 	teqne	r5, r12
    3520:	0a000007 	beq	3544 <__aeabi_dmul+0x228>
    3524:	e1906081 	orrs	r6, r0, r1, lsl #1
    3528:	11926083 	orrsne	r6, r2, r3, lsl #1
    352c:	1affffe5 	bne	34c8 <__aeabi_dmul+0x1ac>
    3530:	e0211003 	eor	r1, r1, r3
    3534:	e2011102 	and	r1, r1, #-2147483648	; 0x80000000
    3538:	e3a00000 	mov	r0, #0
    353c:	e8bd4070 	pop	{r4, r5, r6, lr}
    3540:	e12fff1e 	bx	lr
    3544:	e1906081 	orrs	r6, r0, r1, lsl #1
    3548:	01a00002 	moveq	r0, r2
    354c:	01a01003 	moveq	r1, r3
    3550:	11926083 	orrsne	r6, r2, r3, lsl #1
    3554:	0a000010 	beq	359c <__aeabi_dmul+0x280>
    3558:	e134000c 	teq	r4, r12
    355c:	1a000001 	bne	3568 <__aeabi_dmul+0x24c>
    3560:	e1906601 	orrs	r6, r0, r1, lsl #12
    3564:	1a00000c 	bne	359c <__aeabi_dmul+0x280>
    3568:	e135000c 	teq	r5, r12
    356c:	1a000003 	bne	3580 <__aeabi_dmul+0x264>
    3570:	e1926603 	orrs	r6, r2, r3, lsl #12
    3574:	11a00002 	movne	r0, r2
    3578:	11a01003 	movne	r1, r3
    357c:	1a000006 	bne	359c <__aeabi_dmul+0x280>
    3580:	e0211003 	eor	r1, r1, r3
    3584:	e2011102 	and	r1, r1, #-2147483648	; 0x80000000
    3588:	e381147f 	orr	r1, r1, #2130706432	; 0x7f000000
    358c:	e381160f 	orr	r1, r1, #15728640	; 0xf00000
    3590:	e3a00000 	mov	r0, #0
    3594:	e8bd4070 	pop	{r4, r5, r6, lr}
    3598:	e12fff1e 	bx	lr
    359c:	e381147f 	orr	r1, r1, #2130706432	; 0x7f000000
    35a0:	e381173e 	orr	r1, r1, #16252928	; 0xf80000
    35a4:	e8bd4070 	pop	{r4, r5, r6, lr}
    35a8:	e12fff1e 	bx	lr

000035ac <__aeabi_ddiv>:
    35ac:	e92d4070 	push	{r4, r5, r6, lr}
    35b0:	e3a0c0ff 	mov	r12, #255	; 0xff
    35b4:	e38ccc07 	orr	r12, r12, #1792	; 0x700
    35b8:	e01c4a21 	ands	r4, r12, r1, lsr #20
    35bc:	101c5a23 	andsne	r5, r12, r3, lsr #20
    35c0:	1134000c 	teqne	r4, r12
    35c4:	1135000c 	teqne	r5, r12
    35c8:	0b00005e 	bleq	3748 <__aeabi_ddiv+0x19c>
    35cc:	e0444005 	sub	r4, r4, r5
    35d0:	e021e003 	eor	lr, r1, r3
    35d4:	e1925603 	orrs	r5, r2, r3, lsl #12
    35d8:	e1a01601 	lsl	r1, r1, #12
    35dc:	0a00004c 	beq	3714 <__aeabi_ddiv+0x168>
    35e0:	e1a03603 	lsl	r3, r3, #12
    35e4:	e3a05201 	mov	r5, #268435456	; 0x10000000
    35e8:	e1853223 	orr	r3, r5, r3, lsr #4
    35ec:	e1833c22 	orr	r3, r3, r2, lsr #24
    35f0:	e1a02402 	lsl	r2, r2, #8
    35f4:	e1855221 	orr	r5, r5, r1, lsr #4
    35f8:	e1855c20 	orr	r5, r5, r0, lsr #24
    35fc:	e1a06400 	lsl	r6, r0, #8
    3600:	e20e1102 	and	r1, lr, #-2147483648	; 0x80000000
    3604:	e1550003 	cmp	r5, r3
    3608:	01560002 	cmpeq	r6, r2
    360c:	e2a440fd 	adc	r4, r4, #253	; 0xfd
    3610:	e2844c03 	add	r4, r4, #768	; 0x300
    3614:	2a000001 	bcs	3620 <__aeabi_ddiv+0x74>
    3618:	e1b030a3 	lsrs	r3, r3, #1
    361c:	e1a02062 	rrx	r2, r2
    3620:	e0566002 	subs	r6, r6, r2
    3624:	e0c55003 	sbc	r5, r5, r3
    3628:	e1b030a3 	lsrs	r3, r3, #1
    362c:	e1a02062 	rrx	r2, r2
    3630:	e3a00601 	mov	r0, #1048576	; 0x100000
    3634:	e3a0c702 	mov	r12, #524288	; 0x80000
    3638:	e056e002 	subs	lr, r6, r2
    363c:	e0d5e003 	sbcs	lr, r5, r3
    3640:	20466002 	subcs	r6, r6, r2
    3644:	21a0500e 	movcs	r5, lr
    3648:	2180000c 	orrcs	r0, r0, r12
    364c:	e1b030a3 	lsrs	r3, r3, #1
    3650:	e1a02062 	rrx	r2, r2
    3654:	e056e002 	subs	lr, r6, r2
    3658:	e0d5e003 	sbcs	lr, r5, r3
    365c:	20466002 	subcs	r6, r6, r2
    3660:	21a0500e 	movcs	r5, lr
    3664:	218000ac 	orrcs	r0, r0, r12, lsr #1
    3668:	e1b030a3 	lsrs	r3, r3, #1
    366c:	e1a02062 	rrx	r2, r2
    3670:	e056e002 	subs	lr, r6, r2
    3674:	e0d5e003 	sbcs	lr, r5, r3
    3678:	20466002 	subcs	r6, r6, r2
    367c:	21a0500e 	movcs	r5, lr
    3680:	2180012c 	orrcs	r0, r0, r12, lsr #2
    3684:	e1b030a3 	lsrs	r3, r3, #1
    3688:	e1a02062 	rrx	r2, r2
    368c:	e056e002 	subs	lr, r6, r2
    3690:	e0d5e003 	sbcs	lr, r5, r3
    3694:	20466002 	subcs	r6, r6, r2
    3698:	21a0500e 	movcs	r5, lr
    369c:	218001ac 	orrcs	r0, r0, r12, lsr #3
    36a0:	e195e006 	orrs	lr, r5, r6
    36a4:	0a00000d 	beq	36e0 <__aeabi_ddiv+0x134>
    36a8:	e1a05205 	lsl	r5, r5, #4
    36ac:	e1855e26 	orr	r5, r5, r6, lsr #28
    36b0:	e1a06206 	lsl	r6, r6, #4
    36b4:	e1a03183 	lsl	r3, r3, #3
    36b8:	e1833ea2 	orr	r3, r3, r2, lsr #29
    36bc:	e1a02182 	lsl	r2, r2, #3
    36c0:	e1b0c22c 	lsrs	r12, r12, #4
    36c4:	1affffdb 	bne	3638 <__aeabi_ddiv+0x8c>
    36c8:	e3110601 	tst	r1, #1048576	; 0x100000
    36cc:	1a000006 	bne	36ec <__aeabi_ddiv+0x140>
    36d0:	e1811000 	orr	r1, r1, r0
    36d4:	e3a00000 	mov	r0, #0
    36d8:	e3a0c102 	mov	r12, #-2147483648	; 0x80000000
    36dc:	eaffffd5 	b	3638 <__aeabi_ddiv+0x8c>
    36e0:	e3110601 	tst	r1, #1048576	; 0x100000
    36e4:	01811000 	orreq	r1, r1, r0
    36e8:	03a00000 	moveq	r0, #0
    36ec:	e254c0fd 	subs	r12, r4, #253	; 0xfd
    36f0:	835c0c07 	cmphi	r12, #1792	; 0x700
    36f4:	8affff43 	bhi	3408 <__aeabi_dmul+0xec>
    36f8:	e055c003 	subs	r12, r5, r3
    36fc:	0056c002 	subseq	r12, r6, r2
    3700:	01b0c0a0 	lsrseq	r12, r0, #1
    3704:	e2b00000 	adcs	r0, r0, #0
    3708:	e0a11a04 	adc	r1, r1, r4, lsl #20
    370c:	e8bd4070 	pop	{r4, r5, r6, lr}
    3710:	e12fff1e 	bx	lr
    3714:	e20ee102 	and	lr, lr, #-2147483648	; 0x80000000
    3718:	e18e1621 	orr	r1, lr, r1, lsr #12
    371c:	e09440ac 	adds	r4, r4, r12, lsr #1
    3720:	c074500c 	rsbsgt	r5, r4, r12
    3724:	c1811a04 	orrgt	r1, r1, r4, lsl #20
    3728:	c8bd4070 	popgt	{r4, r5, r6, lr}
    372c:	c12fff1e 	bxgt	lr
    3730:	e3811601 	orr	r1, r1, #1048576	; 0x100000
    3734:	e3a0e000 	mov	lr, #0
    3738:	e2544001 	subs	r4, r4, #1
    373c:	eaffff31 	b	3408 <__aeabi_dmul+0xec>
    3740:	e185e006 	orr	lr, r5, r6
    3744:	eaffff2f 	b	3408 <__aeabi_dmul+0xec>
    3748:	e00c5a23 	and	r5, r12, r3, lsr #20
    374c:	e134000c 	teq	r4, r12
    3750:	0135000c 	teqeq	r5, r12
    3754:	0affff90 	beq	359c <__aeabi_dmul+0x280>
    3758:	e134000c 	teq	r4, r12
    375c:	1a000006 	bne	377c <__aeabi_ddiv+0x1d0>
    3760:	e1904601 	orrs	r4, r0, r1, lsl #12
    3764:	1affff8c 	bne	359c <__aeabi_dmul+0x280>
    3768:	e135000c 	teq	r5, r12
    376c:	1affff83 	bne	3580 <__aeabi_dmul+0x264>
    3770:	e1a00002 	mov	r0, r2
    3774:	e1a01003 	mov	r1, r3
    3778:	eaffff87 	b	359c <__aeabi_dmul+0x280>
    377c:	e135000c 	teq	r5, r12
    3780:	1a000004 	bne	3798 <__aeabi_ddiv+0x1ec>
    3784:	e1925603 	orrs	r5, r2, r3, lsl #12
    3788:	0affff68 	beq	3530 <__aeabi_dmul+0x214>
    378c:	e1a00002 	mov	r0, r2
    3790:	e1a01003 	mov	r1, r3
    3794:	eaffff80 	b	359c <__aeabi_dmul+0x280>
    3798:	e1906081 	orrs	r6, r0, r1, lsl #1
    379c:	11926083 	orrsne	r6, r2, r3, lsl #1
    37a0:	1affff48 	bne	34c8 <__aeabi_dmul+0x1ac>
    37a4:	e1904081 	orrs	r4, r0, r1, lsl #1
    37a8:	1affff74 	bne	3580 <__aeabi_dmul+0x264>
    37ac:	e1925083 	orrs	r5, r2, r3, lsl #1
    37b0:	1affff5e 	bne	3530 <__aeabi_dmul+0x214>
    37b4:	eaffff78 	b	359c <__aeabi_dmul+0x280>

000037b8 <__gedf2>:
    37b8:	e3e0c000 	mvn	r12, #0
    37bc:	ea000002 	b	37cc <__cmpdf2+0x4>

000037c0 <__ledf2>:
    37c0:	e3a0c001 	mov	r12, #1
    37c4:	ea000000 	b	37cc <__cmpdf2+0x4>

000037c8 <__cmpdf2>:
    37c8:	e3a0c001 	mov	r12, #1
    37cc:	e52dc004 	push	{r12}		; (str r12, [sp, #-4]!)
    37d0:	e1a0c081 	lsl	r12, r1, #1
    37d4:	e1f0cacc 	mvns	r12, r12, asr #21
    37d8:	e1a0c083 	lsl	r12, r3, #1
    37dc:	11f0cacc 	mvnsne	r12, r12, asr #21
    37e0:	0a00000e 	beq	3820 <__cmpdf2+0x58>
    37e4:	e28dd004 	add	sp, sp, #4
    37e8:	e190c081 	orrs	r12, r0, r1, lsl #1
    37ec:	0192c083 	orrseq	r12, r2, r3, lsl #1
    37f0:	11310003 	teqne	r1, r3
    37f4:	01300002 	teqeq	r0, r2
    37f8:	03a00000 	moveq	r0, #0
    37fc:	012fff1e 	bxeq	lr
    3800:	e3700000 	cmn	r0, #0
    3804:	e1310003 	teq	r1, r3
    3808:	51510003 	cmppl	r1, r3
    380c:	01500002 	cmpeq	r0, r2
    3810:	21a00fc3 	asrcs	r0, r3, #31
    3814:	31e00fc3 	mvncc	r0, r3, asr #31
    3818:	e3800001 	orr	r0, r0, #1
    381c:	e12fff1e 	bx	lr
    3820:	e1a0c081 	lsl	r12, r1, #1
    3824:	e1f0cacc 	mvns	r12, r12, asr #21
    3828:	1a000001 	bne	3834 <__cmpdf2+0x6c>
    382c:	e190c601 	orrs	r12, r0, r1, lsl #12
    3830:	1a000004 	bne	3848 <__cmpdf2+0x80>
    3834:	e1a0c083 	lsl	r12, r3, #1
    3838:	e1f0cacc 	mvns	r12, r12, asr #21
    383c:	1affffe8 	bne	37e4 <__cmpdf2+0x1c>
    3840:	e192c603 	orrs	r12, r2, r3, lsl #12
    3844:	0affffe6 	beq	37e4 <__cmpdf2+0x1c>
    3848:	e49d0004 	pop	{r0}		; (ldr r0, [sp], #4)
    384c:	e12fff1e 	bx	lr

00003850 <__aeabi_cdrcmple>:
    3850:	e1a0c000 	mov	r12, r0
    3854:	e1a00002 	mov	r0, r2
    3858:	e1a0200c 	mov	r2, r12
    385c:	e1a0c001 	mov	r12, r1
    3860:	e1a01003 	mov	r1, r3
    3864:	e1a0300c 	mov	r3, r12
    3868:	eaffffff 	b	386c <__aeabi_cdcmpeq>

0000386c <__aeabi_cdcmpeq>:
    386c:	e92d4001 	push	{r0, lr}
    3870:	ebffffd4 	bl	37c8 <__cmpdf2>
    3874:	e3500000 	cmp	r0, #0
    3878:	43700000 	cmnmi	r0, #0
    387c:	e8bd4001 	pop	{r0, lr}
    3880:	e12fff1e 	bx	lr

00003884 <__aeabi_dcmpeq>:
    3884:	e52de008 	str	lr, [sp, #-8]!
    3888:	ebfffff7 	bl	386c <__aeabi_cdcmpeq>
    388c:	03a00001 	moveq	r0, #1
    3890:	13a00000 	movne	r0, #0
    3894:	e49de008 	ldr	lr, [sp], #8
    3898:	e12fff1e 	bx	lr

0000389c <__aeabi_dcmplt>:
    389c:	e52de008 	str	lr, [sp, #-8]!
    38a0:	ebfffff1 	bl	386c <__aeabi_cdcmpeq>
    38a4:	33a00001 	movcc	r0, #1
    38a8:	23a00000 	movcs	r0, #0
    38ac:	e49de008 	ldr	lr, [sp], #8
    38b0:	e12fff1e 	bx	lr

000038b4 <__aeabi_dcmple>:
    38b4:	e52de008 	str	lr, [sp, #-8]!
    38b8:	ebffffeb 	bl	386c <__aeabi_cdcmpeq>
    38bc:	93a00001 	movls	r0, #1
    38c0:	83a00000 	movhi	r0, #0
    38c4:	e49de008 	ldr	lr, [sp], #8
    38c8:	e12fff1e 	bx	lr

000038cc <__aeabi_dcmpge>:
    38cc:	e52de008 	str	lr, [sp, #-8]!
    38d0:	ebffffde 	bl	3850 <__aeabi_cdrcmple>
    38d4:	93a00001 	movls	r0, #1
    38d8:	83a00000 	movhi	r0, #0
    38dc:	e49de008 	ldr	lr, [sp], #8
    38e0:	e12fff1e 	bx	lr

000038e4 <__aeabi_dcmpgt>:
    38e4:	e52de008 	str	lr, [sp, #-8]!
    38e8:	ebffffd8 	bl	3850 <__aeabi_cdrcmple>
    38ec:	33a00001 	movcc	r0, #1
    38f0:	23a00000 	movcs	r0, #0
    38f4:	e49de008 	ldr	lr, [sp], #8
    38f8:	e12fff1e 	bx	lr

000038fc <__aeabi_d2iz>:
    38fc:	e1a02081 	lsl	r2, r1, #1
    3900:	e2922602 	adds	r2, r2, #2097152	; 0x200000
    3904:	2a00000c 	bcs	393c <__aeabi_d2iz+0x40>
    3908:	5a000009 	bpl	3934 <__aeabi_d2iz+0x38>
    390c:	e3e03e3e 	mvn	r3, #992	; 0x3e0
    3910:	e0532ac2 	subs	r2, r3, r2, asr #21
    3914:	9a00000a 	bls	3944 <__aeabi_d2iz+0x48>
    3918:	e1a03581 	lsl	r3, r1, #11
    391c:	e3833102 	orr	r3, r3, #-2147483648	; 0x80000000
    3920:	e1833aa0 	orr	r3, r3, r0, lsr #21
    3924:	e3110102 	tst	r1, #-2147483648	; 0x80000000
    3928:	e1a00233 	lsr	r0, r3, r2
    392c:	12600000 	rsbne	r0, r0, #0
    3930:	e12fff1e 	bx	lr
    3934:	e3a00000 	mov	r0, #0
    3938:	e12fff1e 	bx	lr
    393c:	e1900601 	orrs	r0, r0, r1, lsl #12
    3940:	1a000002 	bne	3950 <__aeabi_d2iz+0x54>
    3944:	e2110102 	ands	r0, r1, #-2147483648	; 0x80000000
    3948:	03e00102 	mvneq	r0, #-2147483648	; 0x80000000
    394c:	e12fff1e 	bx	lr
    3950:	e3a00000 	mov	r0, #0
    3954:	e12fff1e 	bx	lr

00003958 <atexit>:
    3958:	e1a01000 	mov	r1, r0
    395c:	e3a00000 	mov	r0, #0
    3960:	e92d4008 	push	{r3, lr}
    3964:	e1a02000 	mov	r2, r0
    3968:	e1a03000 	mov	r3, r0
    396c:	eb00000e 	bl	39ac <__register_exitproc>
    3970:	e8bd4008 	pop	{r3, lr}
    3974:	e12fff1e 	bx	lr

00003978 <exit>:
    3978:	e92d4008 	push	{r3, lr}
    397c:	e3a01000 	mov	r1, #0
    3980:	e1a04000 	mov	r4, r0
    3984:	eb000045 	bl	3aa0 <__call_exitprocs>
    3988:	e59f3018 	ldr	r3, [pc, #24]	; 39a8 <exit+0x30>
    398c:	e5930000 	ldr	r0, [r3]
    3990:	e590303c 	ldr	r3, [r0, #60]	; 0x3c
    3994:	e3530000 	cmp	r3, #0
    3998:	11a0e00f 	movne	lr, pc
    399c:	112fff13 	bxne	r3
    39a0:	e1a00004 	mov	r0, r4
    39a4:	eb0000c9 	bl	3cd0 <_exit>
    39a8:	00003da0 	.word	0x00003da0

000039ac <__register_exitproc>:
    39ac:	e59fc0e4 	ldr	r12, [pc, #228]	; 3a98 <__register_exitproc+0xec>
    39b0:	e92d41f0 	push	{r4, r5, r6, r7, r8, lr}
    39b4:	e59c4000 	ldr	r4, [r12]
    39b8:	e594c148 	ldr	r12, [r4, #328]	; 0x148
    39bc:	e35c0000 	cmp	r12, #0
    39c0:	0284cf53 	addeq	r12, r4, #332	; 0x14c
    39c4:	e59c5004 	ldr	r5, [r12, #4]
    39c8:	0584c148 	streq	r12, [r4, #328]	; 0x148
    39cc:	e355001f 	cmp	r5, #31
    39d0:	e24dd010 	sub	sp, sp, #16
    39d4:	e1a06000 	mov	r6, r0
    39d8:	da000015 	ble	3a34 <__register_exitproc+0x88>
    39dc:	e59f00b8 	ldr	r0, [pc, #184]	; 3a9c <__register_exitproc+0xf0>
    39e0:	e3500000 	cmp	r0, #0
    39e4:	1a000001 	bne	39f0 <__register_exitproc+0x44>
    39e8:	e3e00000 	mvn	r0, #0
    39ec:	ea000018 	b	3a54 <__register_exitproc+0xa8>
    39f0:	e3a00e19 	mov	r0, #400	; 0x190
    39f4:	e58d100c 	str	r1, [sp, #12]
    39f8:	e58d2008 	str	r2, [sp, #8]
    39fc:	e58d3004 	str	r3, [sp, #4]
    3a00:	e320f000 	nop	{0}
    3a04:	e250c000 	subs	r12, r0, #0
    3a08:	e59d100c 	ldr	r1, [sp, #12]
    3a0c:	e59d2008 	ldr	r2, [sp, #8]
    3a10:	e59d3004 	ldr	r3, [sp, #4]
    3a14:	0afffff3 	beq	39e8 <__register_exitproc+0x3c>
    3a18:	e5945148 	ldr	r5, [r4, #328]	; 0x148
    3a1c:	e3a00000 	mov	r0, #0
    3a20:	e58c0004 	str	r0, [r12, #4]
    3a24:	e58c5000 	str	r5, [r12]
    3a28:	e584c148 	str	r12, [r4, #328]	; 0x148
    3a2c:	e58c0188 	str	r0, [r12, #392]	; 0x188
    3a30:	e58c018c 	str	r0, [r12, #396]	; 0x18c
    3a34:	e3560000 	cmp	r6, #0
    3a38:	e59c4004 	ldr	r4, [r12, #4]
    3a3c:	1a000007 	bne	3a60 <__register_exitproc+0xb4>
    3a40:	e2843002 	add	r3, r4, #2
    3a44:	e2844001 	add	r4, r4, #1
    3a48:	e78c1103 	str	r1, [r12, r3, lsl #2]
    3a4c:	e58c4004 	str	r4, [r12, #4]
    3a50:	e3a00000 	mov	r0, #0
    3a54:	e28dd010 	add	sp, sp, #16
    3a58:	e8bd41f0 	pop	{r4, r5, r6, r7, r8, lr}
    3a5c:	e12fff1e 	bx	lr
    3a60:	e3a00001 	mov	r0, #1
    3a64:	e1a00410 	lsl	r0, r0, r4
    3a68:	e08c8104 	add	r8, r12, r4, lsl #2
    3a6c:	e3560002 	cmp	r6, #2
    3a70:	e59c7188 	ldr	r7, [r12, #392]	; 0x188
    3a74:	e5883108 	str	r3, [r8, #264]	; 0x108
    3a78:	059c318c 	ldreq	r3, [r12, #396]	; 0x18c
    3a7c:	e1877000 	orr	r7, r7, r0
    3a80:	01830000 	orreq	r0, r3, r0
    3a84:	e1a05008 	mov	r5, r8
    3a88:	e5882088 	str	r2, [r8, #136]	; 0x88
    3a8c:	e58c7188 	str	r7, [r12, #392]	; 0x188
    3a90:	058c018c 	streq	r0, [r12, #396]	; 0x18c
    3a94:	eaffffe9 	b	3a40 <__register_exitproc+0x94>
    3a98:	00003da0 	.word	0x00003da0
    3a9c:	00000000 	.word	0x00000000

00003aa0 <__call_exitprocs>:
    3aa0:	e92d4ff0 	push	{r4, r5, r6, r7, r8, r9, r10, r11, lr}
    3aa4:	e59f3168 	ldr	r3, [pc, #360]	; 3c14 <__call_exitprocs+0x174>
    3aa8:	e5933000 	ldr	r3, [r3]
    3aac:	e24dd014 	sub	sp, sp, #20
    3ab0:	e58d3004 	str	r3, [sp, #4]
    3ab4:	e2833f52 	add	r3, r3, #328	; 0x148
    3ab8:	e58d0008 	str	r0, [sp, #8]
    3abc:	e58d300c 	str	r3, [sp, #12]
    3ac0:	e1a07001 	mov	r7, r1
    3ac4:	e3a08001 	mov	r8, #1
    3ac8:	e59d3004 	ldr	r3, [sp, #4]
    3acc:	e5936148 	ldr	r6, [r3, #328]	; 0x148
    3ad0:	e3560000 	cmp	r6, #0
    3ad4:	e59db00c 	ldr	r11, [sp, #12]
    3ad8:	0a000033 	beq	3bac <__call_exitprocs+0x10c>
    3adc:	e5965004 	ldr	r5, [r6, #4]
    3ae0:	e2554001 	subs	r4, r5, #1
    3ae4:	5286a088 	addpl	r10, r6, #136	; 0x88
    3ae8:	5285501f 	addpl	r5, r5, #31
    3aec:	508a5105 	addpl	r5, r10, r5, lsl #2
    3af0:	5a000007 	bpl	3b14 <__call_exitprocs+0x74>
    3af4:	ea000029 	b	3ba0 <__call_exitprocs+0x100>
    3af8:	e5953000 	ldr	r3, [r5]
    3afc:	e1530007 	cmp	r3, r7
    3b00:	0a000005 	beq	3b1c <__call_exitprocs+0x7c>
    3b04:	e2444001 	sub	r4, r4, #1
    3b08:	e3740001 	cmn	r4, #1
    3b0c:	e2455004 	sub	r5, r5, #4
    3b10:	0a000022 	beq	3ba0 <__call_exitprocs+0x100>
    3b14:	e3570000 	cmp	r7, #0
    3b18:	1afffff6 	bne	3af8 <__call_exitprocs+0x58>
    3b1c:	e5963004 	ldr	r3, [r6, #4]
    3b20:	e06a2005 	rsb	r2, r10, r5
    3b24:	e2433001 	sub	r3, r3, #1
    3b28:	e0862002 	add	r2, r6, r2
    3b2c:	e1530004 	cmp	r3, r4
    3b30:	e5123078 	ldr	r3, [r2, #-120]	; 0xffffff88
    3b34:	13a01000 	movne	r1, #0
    3b38:	05864004 	streq	r4, [r6, #4]
    3b3c:	15021078 	strne	r1, [r2, #-120]	; 0xffffff88
    3b40:	e3530000 	cmp	r3, #0
    3b44:	0affffee 	beq	3b04 <__call_exitprocs+0x64>
    3b48:	e1a02418 	lsl	r2, r8, r4
    3b4c:	e5961188 	ldr	r1, [r6, #392]	; 0x188
    3b50:	e1120001 	tst	r2, r1
    3b54:	e5969004 	ldr	r9, [r6, #4]
    3b58:	0a000016 	beq	3bb8 <__call_exitprocs+0x118>
    3b5c:	e596118c 	ldr	r1, [r6, #396]	; 0x18c
    3b60:	e1120001 	tst	r2, r1
    3b64:	1a000016 	bne	3bc4 <__call_exitprocs+0x124>
    3b68:	e59d0008 	ldr	r0, [sp, #8]
    3b6c:	e5151080 	ldr	r1, [r5, #-128]	; 0xffffff80
    3b70:	e1a0e00f 	mov	lr, pc
    3b74:	e12fff13 	bx	r3
    3b78:	e5963004 	ldr	r3, [r6, #4]
    3b7c:	e1530009 	cmp	r3, r9
    3b80:	1affffd0 	bne	3ac8 <__call_exitprocs+0x28>
    3b84:	e59b3000 	ldr	r3, [r11]
    3b88:	e1530006 	cmp	r3, r6
    3b8c:	1affffcd 	bne	3ac8 <__call_exitprocs+0x28>
    3b90:	e2444001 	sub	r4, r4, #1
    3b94:	e3740001 	cmn	r4, #1
    3b98:	e2455004 	sub	r5, r5, #4
    3b9c:	1affffdc 	bne	3b14 <__call_exitprocs+0x74>
    3ba0:	e59f1070 	ldr	r1, [pc, #112]	; 3c18 <__call_exitprocs+0x178>
    3ba4:	e3510000 	cmp	r1, #0
    3ba8:	1a000009 	bne	3bd4 <__call_exitprocs+0x134>
    3bac:	e28dd014 	add	sp, sp, #20
    3bb0:	e8bd4ff0 	pop	{r4, r5, r6, r7, r8, r9, r10, r11, lr}
    3bb4:	e12fff1e 	bx	lr
    3bb8:	e1a0e00f 	mov	lr, pc
    3bbc:	e12fff13 	bx	r3
    3bc0:	eaffffec 	b	3b78 <__call_exitprocs+0xd8>
    3bc4:	e5150080 	ldr	r0, [r5, #-128]	; 0xffffff80
    3bc8:	e1a0e00f 	mov	lr, pc
    3bcc:	e12fff13 	bx	r3
    3bd0:	eaffffe8 	b	3b78 <__call_exitprocs+0xd8>
    3bd4:	e5963004 	ldr	r3, [r6, #4]
    3bd8:	e3530000 	cmp	r3, #0
    3bdc:	e5963000 	ldr	r3, [r6]
    3be0:	1a000008 	bne	3c08 <__call_exitprocs+0x168>
    3be4:	e3530000 	cmp	r3, #0
    3be8:	0a000006 	beq	3c08 <__call_exitprocs+0x168>
    3bec:	e1a00006 	mov	r0, r6
    3bf0:	e58b3000 	str	r3, [r11]
    3bf4:	e320f000 	nop	{0}
    3bf8:	e59b6000 	ldr	r6, [r11]
    3bfc:	e3560000 	cmp	r6, #0
    3c00:	1affffb5 	bne	3adc <__call_exitprocs+0x3c>
    3c04:	eaffffe8 	b	3bac <__call_exitprocs+0x10c>
    3c08:	e1a0b006 	mov	r11, r6
    3c0c:	e1a06003 	mov	r6, r3
    3c10:	eafffff9 	b	3bfc <__call_exitprocs+0x15c>
    3c14:	00003da0 	.word	0x00003da0
    3c18:	00000000 	.word	0x00000000

00003c1c <register_fini>:
    3c1c:	e92d4008 	push	{r3, lr}
    3c20:	e59f3010 	ldr	r3, [pc, #16]	; 3c38 <register_fini+0x1c>
    3c24:	e3530000 	cmp	r3, #0
    3c28:	159f000c 	ldrne	r0, [pc, #12]	; 3c3c <register_fini+0x20>
    3c2c:	1bffff49 	blne	3958 <atexit>
    3c30:	e8bd4008 	pop	{r3, lr}
    3c34:	e12fff1e 	bx	lr
    3c38:	00003dc8 	.word	0x00003dc8
    3c3c:	00003c40 	.word	0x00003c40

00003c40 <__libc_fini_array>:
    3c40:	e92d4038 	push	{r3, r4, r5, lr}
    3c44:	e59f5030 	ldr	r5, [pc, #48]	; 3c7c <__libc_fini_array+0x3c>
    3c48:	e59f4030 	ldr	r4, [pc, #48]	; 3c80 <__libc_fini_array+0x40>
    3c4c:	e0654004 	rsb	r4, r5, r4
    3c50:	e1b04144 	asrs	r4, r4, #2
    3c54:	10855104 	addne	r5, r5, r4, lsl #2
    3c58:	0a000004 	beq	3c70 <__libc_fini_array+0x30>
    3c5c:	e5353004 	ldr	r3, [r5, #-4]!
    3c60:	e1a0e00f 	mov	lr, pc
    3c64:	e12fff13 	bx	r3
    3c68:	e2544001 	subs	r4, r4, #1
    3c6c:	1afffffa 	bne	3c5c <__libc_fini_array+0x1c>
    3c70:	eb000054 	bl	3dc8 <__libc_fini>
    3c74:	e8bd4038 	pop	{r3, r4, r5, lr}
    3c78:	e12fff1e 	bx	lr
    3c7c:	00003de0 	.word	0x00003de0
    3c80:	00003de4 	.word	0x00003de4

00003c84 <__cs3_premain>:
    3c84:	e92d4008 	push	{r3, lr}
    3c88:	eb000017 	bl	3cec <__libc_init_array>
    3c8c:	e59f3030 	ldr	r3, [pc, #48]	; 3cc4 <__cs3_premain+0x40>
    3c90:	e3530000 	cmp	r3, #0
    3c94:	15930000 	ldrne	r0, [r3]
    3c98:	01a00003 	moveq	r0, r3
    3c9c:	e59f3024 	ldr	r3, [pc, #36]	; 3cc8 <__cs3_premain+0x44>
    3ca0:	e3530000 	cmp	r3, #0
    3ca4:	15931000 	ldrne	r1, [r3]
    3ca8:	01a01003 	moveq	r1, r3
    3cac:	e3a02000 	mov	r2, #0
    3cb0:	ebfffc89 	bl	2edc <main>
    3cb4:	e59f3010 	ldr	r3, [pc, #16]	; 3ccc <__cs3_premain+0x48>
    3cb8:	e3530000 	cmp	r3, #0
    3cbc:	1bffff2d 	blne	3978 <exit>
    3cc0:	eafffffe 	b	3cc0 <__cs3_premain+0x3c>
	...
    3ccc:	00003978 	.word	0x00003978

00003cd0 <_exit>:
    3cd0:	e52de004 	push	{lr}		; (str lr, [sp, #-4]!)
    3cd4:	e3a00018 	mov	r0, #24
    3cd8:	e59f1004 	ldr	r1, [pc, #4]	; 3ce4 <_exit+0x14>
    3cdc:	ef123456 	svc	0x00123456
    3ce0:	eafffffe 	b	3ce0 <_exit+0x10>
    3ce4:	00020026 	.word	0x00020026

00003ce8 <__cs3_isr_interrupt>:
    3ce8:	eafffffe 	b	3ce8 <__cs3_isr_interrupt>

00003cec <__libc_init_array>:
    3cec:	e92d4070 	push	{r4, r5, r6, lr}
    3cf0:	e59f506c 	ldr	r5, [pc, #108]	; 3d64 <__libc_init_array+0x78>
    3cf4:	e59f606c 	ldr	r6, [pc, #108]	; 3d68 <__libc_init_array+0x7c>
    3cf8:	e0656006 	rsb	r6, r5, r6
    3cfc:	e1b06146 	asrs	r6, r6, #2
    3d00:	12455004 	subne	r5, r5, #4
    3d04:	13a04000 	movne	r4, #0
    3d08:	0a000005 	beq	3d24 <__libc_init_array+0x38>
    3d0c:	e5b53004 	ldr	r3, [r5, #4]!
    3d10:	e2844001 	add	r4, r4, #1
    3d14:	e1a0e00f 	mov	lr, pc
    3d18:	e12fff13 	bx	r3
    3d1c:	e1560004 	cmp	r6, r4
    3d20:	1afffff9 	bne	3d0c <__libc_init_array+0x20>
    3d24:	e59f5040 	ldr	r5, [pc, #64]	; 3d6c <__libc_init_array+0x80>
    3d28:	e59f6040 	ldr	r6, [pc, #64]	; 3d70 <__libc_init_array+0x84>
    3d2c:	e0656006 	rsb	r6, r5, r6
    3d30:	eb00001c 	bl	3da8 <_init>
    3d34:	e1b06146 	asrs	r6, r6, #2
    3d38:	12455004 	subne	r5, r5, #4
    3d3c:	13a04000 	movne	r4, #0
    3d40:	0a000005 	beq	3d5c <__libc_init_array+0x70>
    3d44:	e5b53004 	ldr	r3, [r5, #4]!
    3d48:	e2844001 	add	r4, r4, #1
    3d4c:	e1a0e00f 	mov	lr, pc
    3d50:	e12fff13 	bx	r3
    3d54:	e1560004 	cmp	r6, r4
    3d58:	1afffff9 	bne	3d44 <__libc_init_array+0x58>
    3d5c:	e8bd4070 	pop	{r4, r5, r6, lr}
    3d60:	e12fff1e 	bx	lr
    3d64:	00003dc0 	.word	0x00003dc0
    3d68:	00003dc0 	.word	0x00003dc0
    3d6c:	00003dc0 	.word	0x00003dc0
    3d70:	00003dc8 	.word	0x00003dc8
